
_BUILD/LCDreIDer.elf:     file format elf32-avr

Sections:
Idx Name          Size      VMA       LMA       File off  Algn
  0 .text         00000b3a  00000000  00000000  00000094  2**1
                  CONTENTS, ALLOC, LOAD, READONLY, CODE
  1 .data         00000088  00800060  00000b3a  00000bce  2**0
                  CONTENTS, ALLOC, LOAD, DATA
  2 .bss          0000002d  008000e8  008000e8  00000c56  2**0
                  ALLOC
  3 .stab         00002d9c  00000000  00000000  00000c58  2**2
                  CONTENTS, READONLY, DEBUGGING
  4 .stabstr      0000166f  00000000  00000000  000039f4  2**0
                  CONTENTS, READONLY, DEBUGGING

Disassembly of section .text:

00000000 <__vectors>:
   0:	5f c0       	rjmp	.+190    	; 0xc0 <__ctors_end>
   2:	79 c0       	rjmp	.+242    	; 0xf6 <__bad_interrupt>
   4:	78 c0       	rjmp	.+240    	; 0xf6 <__bad_interrupt>
   6:	77 c0       	rjmp	.+238    	; 0xf6 <__bad_interrupt>
   8:	76 c0       	rjmp	.+236    	; 0xf6 <__bad_interrupt>
   a:	75 c0       	rjmp	.+234    	; 0xf6 <__bad_interrupt>
   c:	74 c0       	rjmp	.+232    	; 0xf6 <__bad_interrupt>
   e:	73 c0       	rjmp	.+230    	; 0xf6 <__bad_interrupt>
  10:	72 c0       	rjmp	.+228    	; 0xf6 <__bad_interrupt>
  12:	71 c0       	rjmp	.+226    	; 0xf6 <__bad_interrupt>
  14:	d5 c1       	rjmp	.+938    	; 0x3c0 <__vector_10>
  16:	6f c0       	rjmp	.+222    	; 0xf6 <__bad_interrupt>
  18:	6e c0       	rjmp	.+220    	; 0xf6 <__bad_interrupt>
  1a:	81 c3       	rjmp	.+1794   	; 0x71e <__vector_13>
  1c:	59 c4       	rjmp	.+2226   	; 0x8d0 <__vector_14>

0000001e <sineTable>:
  1e:	00 02 03 05 06 08 09 0b 0c 0e 10 11 13 14 16 17     ................
  2e:	19 1a 1c 1d 1f 20 22 23 25 26 28 29 2b 2c 2e 2f     ..... "#%&()+,./
  3e:	31 32 33 35 36 38 39 3a 3c 3d 3f 40 41 43 44 45     1235689:<=?@ACDE
  4e:	47 48 49 4a 4c 4d 4e 4f 51 52 53 54 55 56 58 59     GHIJLMNOQRSTUVXY
  5e:	5a 5b 5c 5d 5e 5f 60 61 62 63 64 65 66 67 68 69     Z[\]^_`abcdefghi
  6e:	6a 6a 6b 6c 6d 6e 6f 6f 70 71 71 72 73 73 74 75     jjklmnoopqqrsstu
  7e:	75 76 76 77 78 78 79 79 7a 7a 7a 7b 7b 7c 7c 7c     uvvwxxyyzzz{{|||
  8e:	7d 7d 7d 7d 7e 7e 7e 7e 7e 7f 7f 7f 7f 7f 7f 7f     }}}}~~~~~.......
  9e:	7f                                                  .

0000009f <header>:
  9f:	4c 43 44 72 65 49 44 65 72 35 31 20 32 30 31 33     LCDreIDer51 2013
  af:	2d 31 32 2d 33 30 20 31 39 3a 32 32 3a 33 35 00     -12-30 19:22:35.
  bf:	00                                                  .

000000c0 <__ctors_end>:
  c0:	11 24       	eor	r1, r1
  c2:	1f be       	out	0x3f, r1	; 63
  c4:	cf e5       	ldi	r28, 0x5F	; 95
  c6:	d1 e0       	ldi	r29, 0x01	; 1
  c8:	de bf       	out	0x3e, r29	; 62
  ca:	cd bf       	out	0x3d, r28	; 61

000000cc <__do_copy_data>:
  cc:	10 e0       	ldi	r17, 0x00	; 0
  ce:	a0 e6       	ldi	r26, 0x60	; 96
  d0:	b0 e0       	ldi	r27, 0x00	; 0
  d2:	ea e3       	ldi	r30, 0x3A	; 58
  d4:	fb e0       	ldi	r31, 0x0B	; 11
  d6:	02 c0       	rjmp	.+4      	; 0xdc <__do_copy_data+0x10>
  d8:	05 90       	lpm	r0, Z+
  da:	0d 92       	st	X+, r0
  dc:	a8 3e       	cpi	r26, 0xE8	; 232
  de:	b1 07       	cpc	r27, r17
  e0:	d9 f7       	brne	.-10     	; 0xd8 <__do_copy_data+0xc>

000000e2 <__do_clear_bss>:
  e2:	11 e0       	ldi	r17, 0x01	; 1
  e4:	a8 ee       	ldi	r26, 0xE8	; 232
  e6:	b0 e0       	ldi	r27, 0x00	; 0
  e8:	01 c0       	rjmp	.+2      	; 0xec <.do_clear_bss_start>

000000ea <.do_clear_bss_loop>:
  ea:	1d 92       	st	X+, r1

000000ec <.do_clear_bss_start>:
  ec:	a5 31       	cpi	r26, 0x15	; 21
  ee:	b1 07       	cpc	r27, r17
  f0:	e1 f7       	brne	.-8      	; 0xea <.do_clear_bss_loop>
  f2:	c8 d3       	rcall	.+1936   	; 0x884 <main>
  f4:	20 c5       	rjmp	.+2624   	; 0xb36 <_exit>

000000f6 <__bad_interrupt>:
  f6:	84 cf       	rjmp	.-248    	; 0x0 <__vectors>

000000f8 <quadrantizeTheta>:
// negative values returned here are to be absoluted, first
// but they indicate that the resulting sine value is to be negated
theta_t quadrantizeTheta(theta_t theta)
{

	theta %= SINE_2PI;
  f8:	60 e0       	ldi	r22, 0x00	; 0
  fa:	72 e0       	ldi	r23, 0x02	; 2
  fc:	09 d5       	rcall	.+2578   	; 0xb10 <__divmodhi4>
  fe:	9c 01       	movw	r18, r24

	if(theta < 0)
 100:	37 ff       	sbrs	r19, 7
 102:	02 c0       	rjmp	.+4      	; 0x108 <quadrantizeTheta+0x10>
		theta = SINE_2PI + theta;
 104:	20 50       	subi	r18, 0x00	; 0
 106:	3e 4f       	sbci	r19, 0xFE	; 254

//For more accurate realtimeishness, it might be worthwhile to reverse this order...
	
	//in the first quadrant, just take the sine value from the table
	if(theta < SINE_SIZE-1) //128)
 108:	20 38       	cpi	r18, 0x80	; 128
 10a:	31 05       	cpc	r19, r1
 10c:	8c f0       	brlt	.+34     	; 0x130 <quadrantizeTheta+0x38>
	{
		//theta=theta;
	}	
	//in the second quadrant, mirror theta and subtract the offset
	else if(theta < SINE_SIZE2) //256)
 10e:	2f 3f       	cpi	r18, 0xFF	; 255
 110:	31 05       	cpc	r19, r1
 112:	29 f0       	breq	.+10     	; 0x11e <quadrantizeTheta+0x26>
 114:	24 f0       	brlt	.+8      	; 0x11e <quadrantizeTheta+0x26>
	{
		theta=SINE_SIZE2-theta;
		//return pgm_read_sine(sineTable[SINE_SIZE2-theta]); //256-theta]);
	}
	//in the third quadrant, mirror the value and subtract the offset
	else if(theta < SINE_SIZE3) //384)
 116:	51 e0       	ldi	r21, 0x01	; 1
 118:	20 38       	cpi	r18, 0x80	; 128
 11a:	35 07       	cpc	r19, r21
 11c:	3c f4       	brge	.+14     	; 0x12c <quadrantizeTheta+0x34>
	{
		theta=-(theta-SINE_SIZE2);
 11e:	80 e0       	ldi	r24, 0x00	; 0
 120:	91 e0       	ldi	r25, 0x01	; 1
 122:	ac 01       	movw	r20, r24
 124:	42 1b       	sub	r20, r18
 126:	53 0b       	sbc	r21, r19
 128:	9a 01       	movw	r18, r20
 12a:	02 c0       	rjmp	.+4      	; 0x130 <quadrantizeTheta+0x38>
		//return -(sine_t)pgm_read_sine(sineTable[theta-SINE_SIZE2]); //256]);
	}
	//in the fourth quadrant, mirror both theta and the value and subtract the offset...
	else
	{
		theta=-(SINE_SIZE4-theta);
 12c:	20 50       	subi	r18, 0x00	; 0
 12e:	32 40       	sbci	r19, 0x02	; 2
		//negative=TRUE;
		//return -(sine_t)pgm_read_sine(sineTable[SINE_SIZE4-theta]); //512-theta]);
	}

	return theta;
}
 130:	c9 01       	movw	r24, r18
 132:	08 95       	ret

00000134 <sineRaw8>:
	   return -(int8_t)pgm_read_sine8(sineTable[SINE_SIZE4-theta]); 
	*/

	//And doing this here, reduced from 3844 to 3770
	uint8_t negative = FALSE;
	theta=quadrantizeTheta(theta);
 134:	e1 df       	rcall	.-62     	; 0xf8 <quadrantizeTheta>

	if(theta < 0)
 136:	97 fd       	sbrc	r25, 7
 138:	02 c0       	rjmp	.+4      	; 0x13e <sineRaw8+0xa>
 13a:	20 e0       	ldi	r18, 0x00	; 0
 13c:	04 c0       	rjmp	.+8      	; 0x146 <sineRaw8+0x12>
	{
		theta = -theta;
 13e:	90 95       	com	r25
 140:	81 95       	neg	r24
 142:	9f 4f       	sbci	r25, 0xFF	; 255
 144:	21 e0       	ldi	r18, 0x01	; 1
		negative = TRUE;
	}

	int8_t sine=pgm_read_sine8(sineTable[theta]);
 146:	82 5e       	subi	r24, 0xE2	; 226
 148:	9f 4f       	sbci	r25, 0xFF	; 255
 14a:	fc 01       	movw	r30, r24
 14c:	84 91       	lpm	r24, Z

	if(negative)
 14e:	21 11       	cpse	r18, r1
		sine = -sine;
 150:	81 95       	neg	r24
	return sine;
}
 152:	08 95       	ret

00000154 <setHeartRate>:
	heartSet = mode;
}
*/

void setHeartRate(uint8_t rate)
{
 154:	68 2f       	mov	r22, r24
//	heartRate = rate;
	
	if(rate == 0)
 156:	88 23       	and	r24, r24
 158:	09 f4       	brne	.+2      	; 0x15c <setHeartRate+0x8>
 15a:	61 e0       	ldi	r22, 0x01	; 1
		rate = 1;
		
	#if (_HEART_DMS_)

#warning "Relevant Everywhere: dms6sec_t used in heartbeat, yet a full cycle is 8 seconds, and nevermind blinks! This might need changing!"
    heartStepTime = (HEARTSTEPTIME/rate);
 15c:	8c e9       	ldi	r24, 0x9C	; 156
 15e:	90 e0       	ldi	r25, 0x00	; 0
 160:	70 e0       	ldi	r23, 0x00	; 0
 162:	d6 d4       	rcall	.+2476   	; 0xb10 <__divmodhi4>
 164:	70 93 61 00 	sts	0x0061, r23
 168:	60 93 60 00 	sts	0x0060, r22
	#else
	 heartStepTime = (HEART_ITERATIONCOUNT/rate);
	#endif
}
 16c:	08 95       	ret

0000016e <getHeartRate>:

#if (!defined(HEART_GETRATE_UNUSED) || !HEART_GETRATE_UNUSED)
uint8_t getHeartRate(void)
{
 16e:	60 91 60 00 	lds	r22, 0x0060
 172:	70 91 61 00 	lds	r23, 0x0061
 176:	8c e9       	ldi	r24, 0x9C	; 156
 178:	90 e0       	ldi	r25, 0x00	; 0
 17a:	b6 d4       	rcall	.+2412   	; 0xae8 <__udivmodhi4>
 17c:	86 2f       	mov	r24, r22
	#if (_HEART_DMS_)
	 return HEARTSTEPTIME/heartStepTime;
	#else
	 return HEART_ITERATIONCOUNT/heartStepTime;
	#endif
}
 17e:	08 95       	ret

00000180 <getNextDesired>:
//So main is still running, but the heart isn't incrementing!
// So do the watchdog reset here...

//!!! Check This with WDT...
//#warning "at what heart_reset() rate will getNextDesired never be called?"
	wdt_reset();
 180:	a8 95       	wdr

	desired = (uint8_t)(heartModulator.power);
 182:	20 91 08 01 	lds	r18, 0x0108

	desired += direction;
 186:	80 91 62 00 	lds	r24, 0x0062
 18a:	99 27       	eor	r25, r25
 18c:	87 fd       	sbrc	r24, 7
 18e:	90 95       	com	r25
 190:	82 0f       	add	r24, r18
 192:	91 1d       	adc	r25, r1
	
	//Slightly slower not to have these internal to above, but also safer...
	
	if(desired >= HEART_MAXBRIGHT)
 194:	8f 3f       	cpi	r24, 0xFF	; 255
 196:	91 05       	cpc	r25, r1
 198:	34 f0       	brlt	.+12     	; 0x1a6 <getNextDesired+0x26>
	{
		desired = HEART_MAXBRIGHT;
		direction = -1;
 19a:	8f ef       	ldi	r24, 0xFF	; 255
 19c:	80 93 62 00 	sts	0x0062, r24
 1a0:	8f ef       	ldi	r24, 0xFF	; 255
 1a2:	90 e0       	ldi	r25, 0x00	; 0
 1a4:	08 95       	ret
	}	

	if(desired <= 0)
 1a6:	18 16       	cp	r1, r24
 1a8:	19 06       	cpc	r1, r25
 1aa:	2c f0       	brlt	.+10     	; 0x1b6 <getNextDesired+0x36>
	{
		desired = 0;
		direction = +1;
 1ac:	81 e0       	ldi	r24, 0x01	; 1
 1ae:	80 93 62 00 	sts	0x0062, r24
 1b2:	80 e0       	ldi	r24, 0x00	; 0
 1b4:	90 e0       	ldi	r25, 0x00	; 0
	}
	
	return (uint8_t)desired;
}
 1b6:	08 95       	ret

000001b8 <set_heartBlink>:
uint8_t heartBlink = 0;
//#define TOGGLETIME	(250*DMS_MS)

void set_heartBlink(uint8_t count)
{
	heartBlink = count;
 1b8:	80 93 e8 00 	sts	0x00E8, r24
}
 1bc:	08 95       	ret

000001be <blinkHeart>:
#if (_HEART_DMS_)
#define TOGGLETIME   (250*DMS_MS)

#warning "This may get cut, if the blink-rate is longer than 6sec!"
uint8_t blinkHeart(dms6sec_t currentTime)
{
 1be:	ef 92       	push	r14
 1c0:	ff 92       	push	r15
 1c2:	0f 93       	push	r16
 1c4:	1f 93       	push	r17
	// This is True or False depending on 
	//  whether thisNibble is the high nibble
	static uint8_t highNibble = 0;
	

	uint8_t thisNibble = heartBlink;
 1c6:	30 91 e8 00 	lds	r19, 0x00E8

	//If both nibbles are filled, process them as specified
	if((heartBlink & 0xf0) && (heartBlink & 0x0f))
 1ca:	43 2f       	mov	r20, r19
 1cc:	50 e0       	ldi	r21, 0x00	; 0
 1ce:	ba 01       	movw	r22, r20
 1d0:	60 7f       	andi	r22, 0xF0	; 240
 1d2:	70 70       	andi	r23, 0x00	; 0
 1d4:	61 15       	cp	r22, r1
 1d6:	71 05       	cpc	r23, r1
 1d8:	29 f0       	breq	.+10     	; 0x1e4 <blinkHeart+0x26>
 1da:	fa 01       	movw	r30, r20
 1dc:	ef 70       	andi	r30, 0x0F	; 15
 1de:	f0 70       	andi	r31, 0x00	; 0
 1e0:	30 97       	sbiw	r30, 0x00	; 0
 1e2:	71 f4       	brne	.+28     	; 0x200 <blinkHeart+0x42>
	{	//Fall through and toggle...
	}
	//Otherwise just process the one that's filled
	// to avoid long delays and hopefully make it easier to determine which
	// nibble is filled...
	else if(heartBlink & 0x0f)
 1e4:	4f 70       	andi	r20, 0x0F	; 15
 1e6:	50 70       	andi	r21, 0x00	; 0
 1e8:	41 15       	cp	r20, r1
 1ea:	51 05       	cpc	r21, r1
 1ec:	19 f0       	breq	.+6      	; 0x1f4 <blinkHeart+0x36>
		highNibble = 0;
 1ee:	10 92 eb 00 	sts	0x00EB, r1
 1f2:	06 c0       	rjmp	.+12     	; 0x200 <blinkHeart+0x42>
	else if(heartBlink & 0xf0)
 1f4:	61 15       	cp	r22, r1
 1f6:	71 05       	cpc	r23, r1
 1f8:	19 f0       	breq	.+6      	; 0x200 <blinkHeart+0x42>
		highNibble = 1;
 1fa:	21 e0       	ldi	r18, 0x01	; 1
 1fc:	20 93 eb 00 	sts	0x00EB, r18

	//Fill the appropriate nibble for blinking...
	if(highNibble)
 200:	20 91 eb 00 	lds	r18, 0x00EB
 204:	21 11       	cpse	r18, r1
		thisNibble = (thisNibble & 0xf0) >> 4;
 206:	32 95       	swap	r19
	else
		thisNibble = (thisNibble & 0x0f);
 208:	3f 70       	andi	r19, 0x0F	; 15

	//Blink the proper number of times
	if((toggleCount>>1) < thisNibble)
 20a:	60 91 ec 00 	lds	r22, 0x00EC
 20e:	76 2f       	mov	r23, r22
 210:	76 95       	lsr	r23
 212:	40 91 ed 00 	lds	r20, 0x00ED
 216:	50 91 ee 00 	lds	r21, 0x00EE
 21a:	73 17       	cp	r23, r19
 21c:	80 f4       	brcc	.+32     	; 0x23e <blinkHeart+0x80>
	{
		if(currentTime - lastToggleTime > TOGGLETIME)
 21e:	9c 01       	movw	r18, r24
 220:	24 1b       	sub	r18, r20
 222:	35 0b       	sbc	r19, r21
 224:	a9 01       	movw	r20, r18
 226:	39 e0       	ldi	r19, 0x09	; 9
 228:	45 3c       	cpi	r20, 0xC5	; 197
 22a:	53 07       	cpc	r21, r19
 22c:	60 f1       	brcs	.+88     	; 0x286 <blinkHeart+0xc8>
		{
			lastToggleTime = currentTime;
 22e:	90 93 ee 00 	sts	0x00EE, r25
 232:	80 93 ed 00 	sts	0x00ED, r24
			toggleCount++;
 236:	6f 5f       	subi	r22, 0xFF	; 255
 238:	60 93 ec 00 	sts	0x00EC, r22
 23c:	24 c0       	rjmp	.+72     	; 0x286 <blinkHeart+0xc8>
		}
	}
	//Wait for a while
#warning "There may be some integer promotion issues here..."
	else if(currentTime - lastToggleTime > 
 23e:	bc 01       	movw	r22, r24
 240:	64 1b       	sub	r22, r20
 242:	75 0b       	sbc	r23, r21
 244:	7b 01       	movw	r14, r22
 246:	00 e0       	ldi	r16, 0x00	; 0
 248:	10 e0       	ldi	r17, 0x00	; 0
 24a:	40 e2       	ldi	r20, 0x20	; 32
 24c:	5e e4       	ldi	r21, 0x4E	; 78
 24e:	60 e0       	ldi	r22, 0x00	; 0
 250:	70 e0       	ldi	r23, 0x00	; 0
 252:	02 2e       	mov	r0, r18
 254:	04 c0       	rjmp	.+8      	; 0x25e <blinkHeart+0xa0>
 256:	44 0f       	add	r20, r20
 258:	55 1f       	adc	r21, r21
 25a:	66 1f       	adc	r22, r22
 25c:	77 1f       	adc	r23, r23
 25e:	0a 94       	dec	r0
 260:	d2 f7       	brpl	.-12     	; 0x256 <blinkHeart+0x98>
 262:	4e 15       	cp	r20, r14
 264:	5f 05       	cpc	r21, r15
 266:	60 07       	cpc	r22, r16
 268:	71 07       	cpc	r23, r17
 26a:	68 f4       	brcc	.+26     	; 0x286 <blinkHeart+0xc8>
						(((uint32_t)(TOGGLETIME * 8))<<(highNibble)))
	{
		toggleCount = 0;
 26c:	10 92 ec 00 	sts	0x00EC, r1
		lastToggleTime = currentTime;
 270:	90 93 ee 00 	sts	0x00EE, r25
 274:	80 93 ed 00 	sts	0x00ED, r24
		//Only valid if both nibbles are filled (see above)
		highNibble = !highNibble;
 278:	10 92 eb 00 	sts	0x00EB, r1
 27c:	22 23       	and	r18, r18
 27e:	19 f4       	brne	.+6      	; 0x286 <blinkHeart+0xc8>
 280:	81 e0       	ldi	r24, 0x01	; 1
 282:	80 93 eb 00 	sts	0x00EB, r24
 286:	80 91 ec 00 	lds	r24, 0x00EC
 28a:	80 95       	com	r24
	}

	//(actually, the new value, at this point... but will be the last soon)
	return !getbit(0, toggleCount);
}
 28c:	81 70       	andi	r24, 0x01	; 1
 28e:	1f 91       	pop	r17
 290:	0f 91       	pop	r16
 292:	ff 90       	pop	r15
 294:	ef 90       	pop	r14
 296:	08 95       	ret

00000298 <heartPinInputPoll>:
	   asm("nop;");
	}

	pinState = getpinVar(heartBeatPin, heartPIN);
#else
	setinPORT(HEART_PINNUM, HEART_PINPORT);
 298:	b9 98       	cbi	0x17, 1	; 23
	setpuPORT(HEART_PINNUM, HEART_PINPORT);
 29a:	c1 9a       	sbi	0x18, 1	; 24
	//Insert a delay to allow the pull-up to rise...
	uint8_t delay;
	for(delay = 0; delay < HEART_PULLUP_DELAY; delay++)
	{
		//Necessary or this'll be optimised-out
		asm("nop;");
 29c:	00 00       	nop
 29e:	00 00       	nop
 2a0:	00 00       	nop
	}

	pinState = getpinPORT(HEART_PINNUM, HEART_PINPORT);
 2a2:	86 b3       	in	r24, 0x16	; 22
 2a4:	86 95       	lsr	r24
	// to assure valid/safe values of PORT and DDR...
	//Return the pin to the heartbeat
//	setoutVar(heartBeatPin, heartPIN);

	return pinState;
}
 2a6:	81 70       	andi	r24, 0x01	; 1
 2a8:	08 95       	ret

000002aa <heartClear>:
}
#endif

void heartClear(void)
{
	hfm_setPower(&heartModulator, 0);
 2aa:	85 e0       	ldi	r24, 0x05	; 5
 2ac:	91 e0       	ldi	r25, 0x01	; 1
 2ae:	60 e0       	ldi	r22, 0x00	; 0
 2b0:	66 d0       	rcall	.+204    	; 0x37e <hfm_setPower>
}
 2b2:	08 95       	ret

000002b4 <heartUpdate>:
	return !getbit(0, toggleCount);
}


uint8_t heartUpdate(void)
{	
 2b4:	cf 93       	push	r28
 2b6:	df 93       	push	r29
	static dms6sec_t lastTime = 0;
	
//	uint32_t currentTime;
	dms6sec_t currentTime;
	
	currentTime = dmsGetTime();
 2b8:	e8 d0       	rcall	.+464    	; 0x48a <dmsGetTime>
 2ba:	eb 01       	movw	r28, r22
//	if(currentTime - lastTime > (HEART_ITERATIONCOUNT>>heartRate))
	//heartStepTime is number of updates, no corelation with actual seconds..
//#warning "heartStepTime without dms is untested"
#endif

	if((currentTime - lastTime) > heartStepTime)
 2bc:	40 91 e9 00 	lds	r20, 0x00E9
 2c0:	50 91 ea 00 	lds	r21, 0x00EA
 2c4:	9b 01       	movw	r18, r22
 2c6:	24 1b       	sub	r18, r20
 2c8:	35 0b       	sbc	r19, r21
 2ca:	a9 01       	movw	r20, r18
 2cc:	20 91 60 00 	lds	r18, 0x0060
 2d0:	30 91 61 00 	lds	r19, 0x0061
 2d4:	24 17       	cp	r18, r20
 2d6:	35 07       	cpc	r19, r21
 2d8:	48 f4       	brcc	.+18     	; 0x2ec <heartUpdate+0x38>
	{
		lastTime = currentTime;
 2da:	70 93 ea 00 	sts	0x00EA, r23
 2de:	60 93 e9 00 	sts	0x00E9, r22

		hfm_setPower(&heartModulator, getNextDesired());
 2e2:	4e df       	rcall	.-356    	; 0x180 <getNextDesired>
 2e4:	68 2f       	mov	r22, r24
 2e6:	85 e0       	ldi	r24, 0x05	; 5
 2e8:	91 e0       	ldi	r25, 0x01	; 1
 2ea:	49 d0       	rcall	.+146    	; 0x37e <hfm_setPower>
//				(If IN is tied LOW, the LED will be OFF)
	//determine whether the LED should be on or off based on the HFM
	// return TRUE if the pin is available as an input
	uint8_t ledVal;

	if(heartBlink)
 2ec:	80 91 e8 00 	lds	r24, 0x00E8
 2f0:	88 23       	and	r24, r24
 2f2:	19 f0       	breq	.+6      	; 0x2fa <heartUpdate+0x46>
		ledVal = blinkHeart(currentTime);
 2f4:	ce 01       	movw	r24, r28
 2f6:	63 df       	rcall	.-314    	; 0x1be <blinkHeart>
 2f8:	03 c0       	rjmp	.+6      	; 0x300 <heartUpdate+0x4c>
		//ledVal = blinkHeart((dms6sec_t)currentTime);
	else
		ledVal = hfm_nextOutput(&heartModulator);
 2fa:	85 e0       	ldi	r24, 0x05	; 5
 2fc:	91 e0       	ldi	r25, 0x01	; 1
 2fe:	48 d0       	rcall	.+144    	; 0x390 <hfm_nextOutput>

	if(ledVal)
 300:	88 23       	and	r24, r24
 302:	21 f0       	breq	.+8      	; 0x30c <heartUpdate+0x58>
			setoutVar(heartBeatPin, heartPIN);
			setpinVar(heartBeatPin, heartPIN);
		}
#else
 #if (HEART_LEDCONNECTION == LED_DIRECT_HIGH)
		setinPORT(HEART_PINNUM, HEART_PINPORT);
 304:	b9 98       	cbi	0x17, 1	; 23
		setpuPORT(HEART_PINNUM, HEART_PINPORT);
 306:	c1 9a       	sbi	0x18, 1	; 24
 308:	81 e0       	ldi	r24, 0x01	; 1
		setpinPORT(HEART_PINNUM, HEART_PINPORT);
 #else
	#error "Not Handled..."
 #endif
#endif
		return TRUE;
 30a:	03 c0       	rjmp	.+6      	; 0x312 <heartUpdate+0x5e>
		//PORT = L
		clrpinVar(heartBeatPin, heartPIN);
		//DDR = H,out
		setoutVar(heartBeatPin, heartPIN);
#else
		clrpinPORT(HEART_PINNUM, HEART_PINPORT);
 30c:	c1 98       	cbi	0x18, 1	; 24
		setoutPORT(HEART_PINNUM, HEART_PINPORT);
 30e:	b9 9a       	sbi	0x17, 1	; 23
 310:	80 e0       	ldi	r24, 0x00	; 0
#endif
		return FALSE;
	}

}
 312:	df 91       	pop	r29
 314:	cf 91       	pop	r28
 316:	08 95       	ret

00000318 <heartupdate>:
#endif

#if (!defined(DMS_WAITFN_UNUSED) || !DMS_WAITFN_UNUSED)
void heartupdate(void)
{
	heartUpdate();
 318:	cd df       	rcall	.-102    	; 0x2b4 <heartUpdate>
}
 31a:	08 95       	ret

0000031c <init_heartBeat>:
	//DDR = H,out
	setoutVar(heartBeatPin, heartPIN);
#else
void init_heartBeat(void)
{
	wdt_reset();
 31c:	a8 95       	wdr
	wdt_disable();
 31e:	88 e1       	ldi	r24, 0x18	; 24
 320:	0f b6       	in	r0, 0x3f	; 63
 322:	f8 94       	cli
 324:	81 bd       	out	0x21, r24	; 33
 326:	11 bc       	out	0x21, r1	; 33
 328:	0f be       	out	0x3f, r0	; 63
	clrpinPORT(HEART_PINNUM, HEART_PINPORT);
 32a:	c1 98       	cbi	0x18, 1	; 24
	setoutPORT(HEART_PINNUM, HEART_PINPORT);
 32c:	b9 9a       	sbi	0x17, 1	; 23
#endif



//	hfm_setPower(&heartModulator, 0);
	hfm_setup(&heartModulator, 0, HEART_MAXBRIGHT);
 32e:	85 e0       	ldi	r24, 0x05	; 5
 330:	91 e0       	ldi	r25, 0x01	; 1
 332:	60 e0       	ldi	r22, 0x00	; 0
 334:	4f ef       	ldi	r20, 0xFF	; 255
 336:	17 d0       	rcall	.+46     	; 0x366 <hfm_setup>

	setHeartRate(0);
 338:	80 e0       	ldi	r24, 0x00	; 0
 33a:	0c df       	rcall	.-488    	; 0x154 <setHeartRate>
	
#if (_HEART_DMS_)
 #if (_DMS_EXTERNALUPDATE_)
	//dmsTimer should be initialized elsewhere based on the rate of dmsUpdate calls...
 #else 
	init_dmsTimer();
 33c:	c2 d0       	rcall	.+388    	; 0x4c2 <init_dmsTimer>
	// IF the reset occurred, the WDTimer is reset to 16ms!
	// IF wdt_reset() isn't called before then, it will get stuck resetting!
	//!!!! This can happen even if the WDT is NEVER ENABLED
	// esp. if the bit is set during a brown-out...
	//Could also check ! Power-On, and/or brownout... 
	if(getbit(WDRF, MCUStatReg))
 33e:	84 b7       	in	r24, 0x34	; 52
 340:	86 95       	lsr	r24
 342:	86 95       	lsr	r24
 344:	86 95       	lsr	r24
 346:	80 ff       	sbrs	r24, 0
 348:	02 c0       	rjmp	.+4      	; 0x34e <init_heartBeat+0x32>
	{
		setHeartRate(32);
 34a:	80 e2       	ldi	r24, 0x20	; 32
 34c:	03 df       	rcall	.-506    	; 0x154 <setHeartRate>
		{
			heartUpdate();
		}
*/
	}
	if(!getbit(PORF, MCUStatReg))
 34e:	04 b6       	in	r0, 0x34	; 52
 350:	00 fc       	sbrc	r0, 0
 352:	07 c0       	rjmp	.+14     	; 0x362 <init_heartBeat+0x46>
	{
		//It seems unusual that a brown-out wouldn't occur on power-up... takes time to charge caps, etc.
		//only check this if PowerOnReset was already cleared from a previous run
		if(getbit(BORF, MCUStatReg))
 354:	84 b7       	in	r24, 0x34	; 52
 356:	86 95       	lsr	r24
 358:	86 95       	lsr	r24
 35a:	80 ff       	sbrs	r24, 0
 35c:	02 c0       	rjmp	.+4      	; 0x362 <init_heartBeat+0x46>
		{
			setHeartRate(16);
 35e:	80 e1       	ldi	r24, 0x10	; 16
 360:	f9 de       	rcall	.-526    	; 0x154 <setHeartRate>
		}
	}
	//Clear the reset flags so we can see next time...
//	MCUSR = 0x0f;
	MCUStatReg = 0;
 362:	14 be       	out	0x34, r1	; 52
  #endif
 #endif
#else
 #warning "WDT DISABLED"
#endif
}
 364:	08 95       	ret

00000366 <hfm_setup>:

//Mainly just for setting up the maxPower (divisor)
// [can] use hfm_setPower otherwise...
// can't tell how to get away without using hfm_setup once
void hfm_setup(hfm_t *modulator, uint8_t power, uint8_t maxPower)
{
 366:	fc 01       	movw	r30, r24
	modulator->desiredSum = 0;
 368:	11 82       	std	Z+1, r1	; 0x01
 36a:	10 82       	st	Z, r1
	modulator->maxPower = maxPower;
 36c:	42 83       	std	Z+2, r20	; 0x02
{
	//Don't allow power values > 1, otherwise who knows what'll happen...
	//(This is probably unnecessary, but whatev)
	//It's not, actually, if power's greater than maxPower, the values never reset
	// This is trouble, e.g. in heartbeat, where modulator.power is read
	if(power <= (modulator->maxPower))
 36e:	82 81       	ldd	r24, Z+2	; 0x02
 370:	86 17       	cp	r24, r22
 372:	10 f0       	brcs	.+4      	; 0x378 <hfm_setup+0x12>
		modulator->power = power;
 374:	63 83       	std	Z+3, r22	; 0x03
 376:	08 95       	ret
	else
		modulator->power = modulator->maxPower;
 378:	82 81       	ldd	r24, Z+2	; 0x02
 37a:	83 83       	std	Z+3, r24	; 0x03
 37c:	08 95       	ret

0000037e <hfm_setPower>:
// This needs to be set, initially! 
//   either init it in the hfm variable declaration
//   or use hfm_setup (ideal)
// however, sometimes it needs to be variable, thus hfm_setup (above)
void hfm_setPower(hfm_t	*modulator, uint8_t power)
{
 37e:	fc 01       	movw	r30, r24
	//Don't allow power values > 1, otherwise who knows what'll happen...
	//(This is probably unnecessary, but whatev)
	//It's not, actually, if power's greater than maxPower, the values never reset
	// This is trouble, e.g. in heartbeat, where modulator.power is read
	if(power <= (modulator->maxPower))
 380:	82 81       	ldd	r24, Z+2	; 0x02
 382:	86 17       	cp	r24, r22
 384:	10 f0       	brcs	.+4      	; 0x38a <hfm_setPower+0xc>
		modulator->power = power;
 386:	63 83       	std	Z+3, r22	; 0x03
 388:	08 95       	ret
	else
		modulator->power = modulator->maxPower;
 38a:	82 81       	ldd	r24, Z+2	; 0x02
 38c:	83 83       	std	Z+3, r24	; 0x03
 38e:	08 95       	ret

00000390 <hfm_nextOutput>:
}

//Returns 0 if the "output" should be "off" in this cycle
//		  1 if the "output" should be "on"  in this cycle
uint8_t hfm_nextOutput(hfm_t *modulator)
{
 390:	fc 01       	movw	r30, r24
	// IF desired == 255, we want it never to clr...
	//		but running will be 0 the first time
	//		and we'll therefore if... set == good
	//		and later we'll runningSum == desiredSum (above) 
	//    and reset and if again
	if(modulator->desiredSum > 0)
 392:	80 81       	ld	r24, Z
 394:	91 81       	ldd	r25, Z+1	; 0x01
 396:	18 16       	cp	r1, r24
 398:	19 06       	cpc	r1, r25
 39a:	14 f0       	brlt	.+4      	; 0x3a0 <hfm_nextOutput+0x10>
 39c:	80 e0       	ldi	r24, 0x00	; 0
 39e:	08 c0       	rjmp	.+16     	; 0x3b0 <hfm_nextOutput+0x20>
	{
		(modulator->desiredSum) -= (modulator->maxPower); //0xff;
 3a0:	80 81       	ld	r24, Z
 3a2:	91 81       	ldd	r25, Z+1	; 0x01
 3a4:	22 81       	ldd	r18, Z+2	; 0x02
 3a6:	82 1b       	sub	r24, r18
 3a8:	91 09       	sbc	r25, r1
 3aa:	91 83       	std	Z+1, r25	; 0x01
 3ac:	80 83       	st	Z, r24
 3ae:	81 e0       	ldi	r24, 0x01	; 1
	{
		//Don't modify runningSum, wait until desiredSum catches up...
		toReturn = FALSE;
	}
	
	(modulator->desiredSum) += (modulator->power);
 3b0:	20 81       	ld	r18, Z
 3b2:	31 81       	ldd	r19, Z+1	; 0x01
 3b4:	93 81       	ldd	r25, Z+3	; 0x03
 3b6:	29 0f       	add	r18, r25
 3b8:	31 1d       	adc	r19, r1
 3ba:	31 83       	std	Z+1, r19	; 0x01
 3bc:	20 83       	st	Z, r18
		modulator->runningSum = 0;
		modulator->desiredSum = 0;
	}
*/	
	return toReturn;
}
 3be:	08 95       	ret

000003c0 <__vector_10>:
 #elif defined(TIMER0_COMPA_vect)
SIGNAL(TIMER0_COMPA_vect)
 #else
  #error "this MCU not yet supported"
 #endif
{
 3c0:	1f 92       	push	r1
 3c2:	0f 92       	push	r0
 3c4:	0f b6       	in	r0, 0x3f	; 63
 3c6:	0f 92       	push	r0
 3c8:	11 24       	eor	r1, r1
 3ca:	8f 93       	push	r24
 3cc:	9f 93       	push	r25
 3ce:	af 93       	push	r26
 3d0:	bf 93       	push	r27
	dmsCount++;
 3d2:	80 91 ef 00 	lds	r24, 0x00EF
 3d6:	90 91 f0 00 	lds	r25, 0x00F0
 3da:	a0 91 f1 00 	lds	r26, 0x00F1
 3de:	b0 91 f2 00 	lds	r27, 0x00F2
 3e2:	01 96       	adiw	r24, 0x01	; 1
 3e4:	a1 1d       	adc	r26, r1
 3e6:	b1 1d       	adc	r27, r1
 3e8:	80 93 ef 00 	sts	0x00EF, r24
 3ec:	90 93 f0 00 	sts	0x00F0, r25
 3f0:	a0 93 f1 00 	sts	0x00F1, r26
 3f4:	b0 93 f2 00 	sts	0x00F2, r27
}
 3f8:	bf 91       	pop	r27
 3fa:	af 91       	pop	r26
 3fc:	9f 91       	pop	r25
 3fe:	8f 91       	pop	r24
 400:	0f 90       	pop	r0
 402:	0f be       	out	0x3f, r0	; 63
 404:	0f 90       	pop	r0
 406:	1f 90       	pop	r1
 408:	18 95       	reti

0000040a <dmsWaitFn>:
//pt2Function = DoIt;      // short form
//pt2Function = &DoMore;   // correct assignment using address operator

#if (!defined(DMS_WAITFN_UNUSED) || !DMS_WAITFN_UNUSED)
void dmsWaitFn(uint32_t time, void (*p_waitFn)(void))		//Wait time deci-milliseconds
{
 40a:	af 92       	push	r10
 40c:	bf 92       	push	r11
 40e:	cf 92       	push	r12
 410:	df 92       	push	r13
 412:	ef 92       	push	r14
 414:	ff 92       	push	r15
 416:	0f 93       	push	r16
 418:	1f 93       	push	r17
 41a:	cf 93       	push	r28
 41c:	df 93       	push	r29
 41e:	7b 01       	movw	r14, r22
 420:	8c 01       	movw	r16, r24
 422:	ea 01       	movw	r28, r20
	// If a dmsUpdate (timer interrupt) occurs DURING a read of dmsCount
	//  dmsCount could be scrambled:
	//  e.g. 0x00ff -> 0x0100 could return 0x1ff or possibly 0x0000
	//  since each byte is handled separately (?)
	// THIS IS NEW as of glTest and UNTESTED in AVR.
	dms_cli();
 424:	f8 94       	cli
	//  I think the SAFE way to handle this is to read dmsCount, then dmsFrac
	//  then reread dmsCount (after interrupts are reenabled)
  #if (!defined(DMS_FRAC_UNUSED) || !DMS_FRAC_UNUSED)
   #warning "dmsFrac may not be properly-synced with dmsCount"
	#if defined(TCNT0)
	 dmsFrac = TCNT0;
 426:	82 b7       	in	r24, 0x32	; 50
 428:	80 93 f3 00 	sts	0x00F3, r24
	 dmsFrac = TCNT0L;
	#else
	 #error "TCNT0 is not available... untested MCU!"
	#endif
  #endif
   time=dmsCount;
 42c:	a0 90 ef 00 	lds	r10, 0x00EF
 430:	b0 90 f0 00 	lds	r11, 0x00F0
 434:	c0 90 f1 00 	lds	r12, 0x00F1
 438:	d0 90 f2 00 	lds	r13, 0x00F2
	dms_sei();
 43c:	78 94       	sei
{
	uint32_t startTime;
	
	startTime = dmsGetTime();
	
	while(dmsGetTime() - startTime < time)
 43e:	04 c0       	rjmp	.+8      	; 0x448 <dmsWaitFn+0x3e>
		//else
		//   printf("Pointer not initialized!!\n");

		//WTF was I thinking?
      //if(*waitFn != 0)
		if(p_waitFn != 0)
 440:	20 97       	sbiw	r28, 0x00	; 0
 442:	11 f0       	breq	.+4      	; 0x448 <dmsWaitFn+0x3e>
			// 2.5 calling a function using a function pointer
			//int result1 = pt2Function    (12, 'a', 'b');          // C short way
			//int result2 = (*pt2Function) (12, 'a', 'b');          // C
			
			//waitFn();
			(*p_waitFn)();
 444:	fe 01       	movw	r30, r28
 446:	09 95       	icall
	// If a dmsUpdate (timer interrupt) occurs DURING a read of dmsCount
	//  dmsCount could be scrambled:
	//  e.g. 0x00ff -> 0x0100 could return 0x1ff or possibly 0x0000
	//  since each byte is handled separately (?)
	// THIS IS NEW as of glTest and UNTESTED in AVR.
	dms_cli();
 448:	f8 94       	cli
	//  I think the SAFE way to handle this is to read dmsCount, then dmsFrac
	//  then reread dmsCount (after interrupts are reenabled)
  #if (!defined(DMS_FRAC_UNUSED) || !DMS_FRAC_UNUSED)
   #warning "dmsFrac may not be properly-synced with dmsCount"
	#if defined(TCNT0)
	 dmsFrac = TCNT0;
 44a:	82 b7       	in	r24, 0x32	; 50
 44c:	80 93 f3 00 	sts	0x00F3, r24
	 dmsFrac = TCNT0L;
	#else
	 #error "TCNT0 is not available... untested MCU!"
	#endif
  #endif
   time=dmsCount;
 450:	80 91 ef 00 	lds	r24, 0x00EF
 454:	90 91 f0 00 	lds	r25, 0x00F0
 458:	a0 91 f1 00 	lds	r26, 0x00F1
 45c:	b0 91 f2 00 	lds	r27, 0x00F2
	dms_sei();
 460:	78 94       	sei
{
	uint32_t startTime;
	
	startTime = dmsGetTime();
	
	while(dmsGetTime() - startTime < time)
 462:	8a 19       	sub	r24, r10
 464:	9b 09       	sbc	r25, r11
 466:	ac 09       	sbc	r26, r12
 468:	bd 09       	sbc	r27, r13
 46a:	8e 15       	cp	r24, r14
 46c:	9f 05       	cpc	r25, r15
 46e:	a0 07       	cpc	r26, r16
 470:	b1 07       	cpc	r27, r17
 472:	30 f3       	brcs	.-52     	; 0x440 <dmsWaitFn+0x36>
			(*p_waitFn)();
		}

	}

}
 474:	df 91       	pop	r29
 476:	cf 91       	pop	r28
 478:	1f 91       	pop	r17
 47a:	0f 91       	pop	r16
 47c:	ff 90       	pop	r15
 47e:	ef 90       	pop	r14
 480:	df 90       	pop	r13
 482:	cf 90       	pop	r12
 484:	bf 90       	pop	r11
 486:	af 90       	pop	r10
 488:	08 95       	ret

0000048a <dmsGetTime>:
	// If a dmsUpdate (timer interrupt) occurs DURING a read of dmsCount
	//  dmsCount could be scrambled:
	//  e.g. 0x00ff -> 0x0100 could return 0x1ff or possibly 0x0000
	//  since each byte is handled separately (?)
	// THIS IS NEW as of glTest and UNTESTED in AVR.
	dms_cli();
 48a:	f8 94       	cli
	//  I think the SAFE way to handle this is to read dmsCount, then dmsFrac
	//  then reread dmsCount (after interrupts are reenabled)
  #if (!defined(DMS_FRAC_UNUSED) || !DMS_FRAC_UNUSED)
   #warning "dmsFrac may not be properly-synced with dmsCount"
	#if defined(TCNT0)
	 dmsFrac = TCNT0;
 48c:	82 b7       	in	r24, 0x32	; 50
 48e:	80 93 f3 00 	sts	0x00F3, r24
	 dmsFrac = TCNT0L;
	#else
	 #error "TCNT0 is not available... untested MCU!"
	#endif
  #endif
   time=dmsCount;
 492:	20 91 ef 00 	lds	r18, 0x00EF
 496:	30 91 f0 00 	lds	r19, 0x00F0
 49a:	40 91 f1 00 	lds	r20, 0x00F1
 49e:	50 91 f2 00 	lds	r21, 0x00F2
	dms_sei();
 4a2:	78 94       	sei
	dmsFrac = now.tv_usec%100;
  #endif
	//This *WILL* overflow, but it should still work.... (?)
	return (dms4day_t)((now.tv_sec*DMS_SEC) + (now.tv_usec/100));
 #endif
}
 4a4:	b9 01       	movw	r22, r18
 4a6:	ca 01       	movw	r24, r20
 4a8:	08 95       	ret

000004aa <dmsGetFrac>:
//Returns 0-99 (100ths of a DMS or us) 
//CURRENTLY ONLY VALID FOR incrementSize = 1. (timer0, PC)
// (must use xyT for externalUpdate...)
uint8_t dmsGetFrac(void)
{
	return (uint8_t)((uint16_t)(dmsFrac) * (uint16_t)100  / (uint16_t)dmsNumUpdates);
 4aa:	80 91 f3 00 	lds	r24, 0x00F3
 4ae:	90 e0       	ldi	r25, 0x00	; 0
 4b0:	64 e6       	ldi	r22, 0x64	; 100
 4b2:	70 e0       	ldi	r23, 0x00	; 0
 4b4:	fb d2       	rcall	.+1526   	; 0xaac <__mulhi3>
 4b6:	60 91 63 00 	lds	r22, 0x0063
 4ba:	70 e0       	ldi	r23, 0x00	; 0
 4bc:	15 d3       	rcall	.+1578   	; 0xae8 <__udivmodhi4>
 4be:	86 2f       	mov	r24, r22
}
 4c0:	08 95       	ret

000004c2 <init_dmsTimer>:
}

void init_dmsTimer(void)
{
#if (!defined(DMS_FRAC_UNUSED) || !DMS_FRAC_UNUSED)
	dmsNumUpdates = _DMS_OCR_VAL_;
 4c2:	83 e6       	ldi	r24, 0x63	; 99
 4c4:	80 93 63 00 	sts	0x0063, r24
		 // = (uint8_t)((uint32_t)F_CPU / 
		 //        (uint32_t)(1<<_DMS_CLKDIV_)/(uint32_t)10000);
	dmsIncrementSize = 1;
 4c8:	91 e0       	ldi	r25, 0x01	; 1
 4ca:	90 93 64 00 	sts	0x0064, r25
	//Init_timer0CompareInt(_DMS_CLKDIV_, 10000);
 #if defined(OCR0)
	OCR0 = _DMS_OCR_VAL_; //dmsNumUpdates;
	//OCR0 = (uint8_t)((uint32_t)F_CPU/(uint32_t)(1<<_DMS_CLKDIV_)/(uint32_t)10000);
 #elif defined(OCR0A)
	OCR0A = _DMS_OCR_VAL_; //dmsNumUpdates;
 4ce:	89 bd       	out	0x29, r24	; 41
	//OCR0A = (uint8_t)((uint32_t)F_CPU/(uint32_t)(1<<_DMS_CLKDIV_)/(uint32_t)10000);
 #else
  #error "DMS doesn't yet support this processor with dedicated Timer0, try DMS_EXTERNAL_UPDATE"
 #endif

	timer_setWGM(0, WGM_CLR_ON_COMPARE);
 4d0:	80 e0       	ldi	r24, 0x00	; 0
 4d2:	62 e0       	ldi	r22, 0x02	; 2
 4d4:	7a d0       	rcall	.+244    	; 0x5ca <timer_setWGM>
	timer_selectDivisor(0, _DMS_CLKDIV_);
 4d6:	80 e0       	ldi	r24, 0x00	; 0
 4d8:	63 e0       	ldi	r22, 0x03	; 3
 4da:	4e d0       	rcall	.+156    	; 0x578 <timer_selectDivisor>
	timer_compareMatchIntEnable(0, OUT_CHANNELA);
 4dc:	80 e0       	ldi	r24, 0x00	; 0
 4de:	60 e0       	ldi	r22, 0x00	; 0
 4e0:	41 e0       	ldi	r20, 0x01	; 1
 4e2:	a0 d0       	rcall	.+320    	; 0x624 <timer_compareMatchIntSetup>
	//@@@#warning "timerCommon doesn't yet support frequency-setting!" (handled above, manually)
}
 4e4:	08 95       	ret

000004e6 <timer_setOutputModes>:
										uint8_t outputMode)
{
	uint8_t channelNums;

	//This is not be-all-end-all testing, but helps...
	if(timerNum >= MAXTIMERS)
 4e6:	84 30       	cpi	r24, 0x04	; 4
 4e8:	10 f0       	brcs	.+4      	; 0x4ee <timer_setOutputModes+0x8>
 4ea:	81 e0       	ldi	r24, 0x01	; 1
 4ec:	08 95       	ret
		return 1;
	if(outputChannels >= 0x0f) //MAXCHANNELSPERTIMER)
 4ee:	6f 30       	cpi	r22, 0x0F	; 15
 4f0:	10 f0       	brcs	.+4      	; 0x4f6 <timer_setOutputModes+0x10>
 4f2:	82 e0       	ldi	r24, 0x02	; 2
 4f4:	08 95       	ret

	//For the sake of our brute-force switch statement...
	//Combine the timer number and channel into a single variable...
	//The high nibble contains the timer number, 
	// the low contains the channel numbers as a mask (A=0x1,B=0x2,C=0x3...)
	channelNums = (timerNum<<4) | outputChannels;
 4f6:	82 95       	swap	r24
 4f8:	80 7f       	andi	r24, 0xF0	; 240
 4fa:	86 2b       	or	r24, r22
				writeMasked((outputMode<<COM_SHIFT), COM_MASK, T0_COMReg);
				break;
		   #endif
		   #if defined(OUT_OC0A)
			case OUT_OC0A:
				writeMasked((outputMode<<COMA_SHIFT), COMA_MASK, T0_COMReg);
 4fc:	50 e0       	ldi	r21, 0x00	; 0
 4fe:	34 2f       	mov	r19, r20
 500:	32 95       	swap	r19
 502:	33 0f       	add	r19, r19
 504:	33 0f       	add	r19, r19
 506:	30 7c       	andi	r19, 0xC0	; 192
				break;
		   #endif
		   #if defined(OUT_OC0B)
			case OUT_OC0B:
				writeMasked((outputMode<<COMB_SHIFT), COMB_MASK, T0_COMReg);
 508:	94 e0       	ldi	r25, 0x04	; 4
 50a:	44 0f       	add	r20, r20
 50c:	55 1f       	adc	r21, r21
 50e:	9a 95       	dec	r25
 510:	e1 f7       	brne	.-8      	; 0x50a <timer_setOutputModes+0x24>
 512:	40 73       	andi	r20, 0x30	; 48
 514:	60 e0       	ldi	r22, 0x00	; 0
 516:	70 e0       	ldi	r23, 0x00	; 0
 518:	21 e0       	ldi	r18, 0x01	; 1
	uint8_t i;

	//Handle each output in the mask...
	for(i=1; i<=8; i<<=1)
	{
		uint8_t channelNum = channelNums & (0xf0 | i);
 51a:	92 2f       	mov	r25, r18
 51c:	90 6f       	ori	r25, 0xF0	; 240
 51e:	98 23       	and	r25, r24

		//Don't bother with the switch statement if the for loop is testing
		// a channel that's not being enabled (in the mask)
		if((channelNum & 0x0f) == 0)
 520:	e9 2f       	mov	r30, r25
 522:	f0 e0       	ldi	r31, 0x00	; 0
 524:	ef 70       	andi	r30, 0x0F	; 15
 526:	f0 70       	andi	r31, 0x00	; 0
 528:	30 97       	sbiw	r30, 0x00	; 0
 52a:	f1 f0       	breq	.+60     	; 0x568 <timer_setOutputModes+0x82>
			continue;


		switch(channelNum)
 52c:	92 30       	cpi	r25, 0x02	; 2
 52e:	79 f0       	breq	.+30     	; 0x54e <timer_setOutputModes+0x68>
 530:	93 30       	cpi	r25, 0x03	; 3
 532:	18 f4       	brcc	.+6      	; 0x53a <timer_setOutputModes+0x54>
 534:	91 30       	cpi	r25, 0x01	; 1
 536:	29 f4       	brne	.+10     	; 0x542 <timer_setOutputModes+0x5c>
 538:	06 c0       	rjmp	.+12     	; 0x546 <timer_setOutputModes+0x60>
 53a:	91 31       	cpi	r25, 0x11	; 17
 53c:	69 f0       	breq	.+26     	; 0x558 <timer_setOutputModes+0x72>
 53e:	92 31       	cpi	r25, 0x12	; 18
 540:	79 f0       	breq	.+30     	; 0x560 <timer_setOutputModes+0x7a>
 542:	83 e0       	ldi	r24, 0x03	; 3
 544:	08 95       	ret
				writeMasked((outputMode<<COM_SHIFT), COM_MASK, T0_COMReg);
				break;
		   #endif
		   #if defined(OUT_OC0A)
			case OUT_OC0A:
				writeMasked((outputMode<<COMA_SHIFT), COMA_MASK, T0_COMReg);
 546:	9a b5       	in	r25, 0x2a	; 42
 548:	9f 73       	andi	r25, 0x3F	; 63
 54a:	93 2b       	or	r25, r19
 54c:	03 c0       	rjmp	.+6      	; 0x554 <timer_setOutputModes+0x6e>
				break;
		   #endif
		   #if defined(OUT_OC0B)
			case OUT_OC0B:
				writeMasked((outputMode<<COMB_SHIFT), COMB_MASK, T0_COMReg);
 54e:	9a b5       	in	r25, 0x2a	; 42
 550:	9f 7c       	andi	r25, 0xCF	; 207
 552:	94 2b       	or	r25, r20
 554:	9a bd       	out	0x2a, r25	; 42
				break;
 556:	08 c0       	rjmp	.+16     	; 0x568 <timer_setOutputModes+0x82>
				writeMasked((outputMode<<COM_SHIFT), COM_MASK, T1_COMReg);
				break;
		   #endif
		   #if defined(OUT_OC1A)
			case OUT_OC1A:
				writeMasked((outputMode<<COMA_SHIFT), COMA_MASK, T1_COMReg);
 558:	90 b7       	in	r25, 0x30	; 48
 55a:	9f 73       	andi	r25, 0x3F	; 63
 55c:	93 2b       	or	r25, r19
 55e:	03 c0       	rjmp	.+6      	; 0x566 <timer_setOutputModes+0x80>
				break;
		   #endif
		   #if defined(OUT_OC1B)
			case OUT_OC1B:
				writeMasked((outputMode<<COMB_SHIFT), COMB_MASK, T1_COMReg);
 560:	90 b7       	in	r25, 0x30	; 48
 562:	9f 7c       	andi	r25, 0xCF	; 207
 564:	94 2b       	or	r25, r20
 566:	90 bf       	out	0x30, r25	; 48
	channelNums = (timerNum<<4) | outputChannels;
	
	uint8_t i;

	//Handle each output in the mask...
	for(i=1; i<=8; i<<=1)
 568:	22 0f       	add	r18, r18
 56a:	6f 5f       	subi	r22, 0xFF	; 255
 56c:	7f 4f       	sbci	r23, 0xFF	; 255
 56e:	64 30       	cpi	r22, 0x04	; 4
 570:	71 05       	cpc	r23, r1
 572:	99 f6       	brne	.-90     	; 0x51a <timer_setOutputModes+0x34>
 574:	80 e0       	ldi	r24, 0x00	; 0
				return 3;
				break;
		}
	}
	return 0;
}
 576:	08 95       	ret

00000578 <timer_selectDivisor>:
	uint8_t csbits;
	
  #if defined(CSOBS)
	if(timerNum == 0 || timerNum == 1 || timerNum == 3)//IS_CSTYP(timerNum) || IS_CSOBS(timerNum))
  #else
	if(IS_CSTYP(timerNum))
 578:	82 30       	cpi	r24, 0x02	; 2
 57a:	28 f5       	brcc	.+74     	; 0x5c6 <timer_selectDivisor+0x4e>
  #endif
	{
		switch(clockDiv)
 57c:	66 30       	cpi	r22, 0x06	; 6
 57e:	81 f0       	breq	.+32     	; 0x5a0 <timer_selectDivisor+0x28>
 580:	67 30       	cpi	r22, 0x07	; 7
 582:	28 f4       	brcc	.+10     	; 0x58e <timer_selectDivisor+0x16>
 584:	66 23       	and	r22, r22
 586:	51 f0       	breq	.+20     	; 0x59c <timer_selectDivisor+0x24>
 588:	63 30       	cpi	r22, 0x03	; 3
 58a:	e9 f4       	brne	.+58     	; 0x5c6 <timer_selectDivisor+0x4e>
 58c:	05 c0       	rjmp	.+10     	; 0x598 <timer_selectDivisor+0x20>
 58e:	68 30       	cpi	r22, 0x08	; 8
 590:	49 f0       	breq	.+18     	; 0x5a4 <timer_selectDivisor+0x2c>
 592:	6a 30       	cpi	r22, 0x0A	; 10
 594:	c1 f4       	brne	.+48     	; 0x5c6 <timer_selectDivisor+0x4e>
 596:	08 c0       	rjmp	.+16     	; 0x5a8 <timer_selectDivisor+0x30>
 598:	92 e0       	ldi	r25, 0x02	; 2
 59a:	07 c0       	rjmp	.+14     	; 0x5aa <timer_selectDivisor+0x32>
 59c:	91 e0       	ldi	r25, 0x01	; 1
 59e:	05 c0       	rjmp	.+10     	; 0x5aa <timer_selectDivisor+0x32>
 5a0:	93 e0       	ldi	r25, 0x03	; 3
			case CLKDIV8:
				csbits = CSTYP_DIV8;
				break;
			case CLKDIV64:
				csbits = CSTYP_DIV64;	
				break;
 5a2:	03 c0       	rjmp	.+6      	; 0x5aa <timer_selectDivisor+0x32>
 5a4:	94 e0       	ldi	r25, 0x04	; 4
			case CLKDIV256:
				csbits = CSTYP_DIV256;	
				break;
 5a6:	01 c0       	rjmp	.+2      	; 0x5aa <timer_selectDivisor+0x32>
 5a8:	95 e0       	ldi	r25, 0x05	; 5
 5aa:	97 70       	andi	r25, 0x07	; 7
	}
  #endif
	else 
		return 1;	

	switch(timerNum)
 5ac:	81 30       	cpi	r24, 0x01	; 1
 5ae:	29 f0       	breq	.+10     	; 0x5ba <timer_selectDivisor+0x42>
	{
		//Assume Timer0 and Timer1 exist (see setWGM)
		case 0:
			writeMasked(csbits, CSMASK, T0_CSReg);
 5b0:	83 b7       	in	r24, 0x33	; 51
 5b2:	88 7f       	andi	r24, 0xF8	; 248
 5b4:	89 2b       	or	r24, r25
 5b6:	83 bf       	out	0x33, r24	; 51
 5b8:	04 c0       	rjmp	.+8      	; 0x5c2 <timer_selectDivisor+0x4a>
			break;
		case 1:
			writeMasked(csbits, CSMASK, T1_CSReg);
 5ba:	80 b7       	in	r24, 0x30	; 48
 5bc:	88 7f       	andi	r24, 0xF8	; 248
 5be:	89 2b       	or	r24, r25
 5c0:	80 bf       	out	0x30, r24	; 48
 5c2:	80 e0       	ldi	r24, 0x00	; 0
			break;
 5c4:	08 95       	ret
 5c6:	81 e0       	ldi	r24, 0x01	; 1
			return 1;
			break;
	}
	
	return 0;
}
 5c8:	08 95       	ret

000005ca <timer_setWGM>:
//	wgmLb *= 0xff;
//	wgmHb *= 0xff;

	//Make sure the chosen WGM will be written to the WGM bits properly, as implemented below...
	// Only modes 0-3 are implemented...
	if(wgm > 0x03)
 5ca:	64 30       	cpi	r22, 0x04	; 4
 5cc:	b8 f4       	brcc	.+46     	; 0x5fc <timer_setWGM+0x32>
		return 1;
	
	switch(timerNum)
 5ce:	88 23       	and	r24, r24
 5d0:	a9 f4       	brne	.+42     	; 0x5fc <timer_setWGM+0x32>
			//Whatever .stab is, this single change reduces it by 36Bytes
			writebit(WGM00, T0_WGMReg, wgmHb);
//			writeMasked(wgmHb, (1<<WGM00), T0_WGMReg);
#else
			//This seems to be the "universal" WGM Timer0 settings
			writebit(WGM00, T0_WGMReg, wgmLb);
 5d2:	86 2f       	mov	r24, r22
 5d4:	81 70       	andi	r24, 0x01	; 1
 5d6:	19 f0       	breq	.+6      	; 0x5de <timer_setWGM+0x14>
 5d8:	8a b5       	in	r24, 0x2a	; 42
 5da:	81 60       	ori	r24, 0x01	; 1
 5dc:	02 c0       	rjmp	.+4      	; 0x5e2 <timer_setWGM+0x18>
 5de:	8a b5       	in	r24, 0x2a	; 42
 5e0:	8e 7f       	andi	r24, 0xFE	; 254
 5e2:	8a bd       	out	0x2a, r24	; 42
 5e4:	8a b5       	in	r24, 0x2a	; 42
			writebit(WGM01, T0_WGMReg, wgmHb);
 5e6:	62 70       	andi	r22, 0x02	; 2
 5e8:	19 f0       	breq	.+6      	; 0x5f0 <timer_setWGM+0x26>
 5ea:	8a b5       	in	r24, 0x2a	; 42
 5ec:	82 60       	ori	r24, 0x02	; 2
 5ee:	02 c0       	rjmp	.+4      	; 0x5f4 <timer_setWGM+0x2a>
 5f0:	8a b5       	in	r24, 0x2a	; 42
 5f2:	8d 7f       	andi	r24, 0xFD	; 253
 5f4:	8a bd       	out	0x2a, r24	; 42
 5f6:	8a b5       	in	r24, 0x2a	; 42
 5f8:	80 e0       	ldi	r24, 0x00	; 0
 5fa:	08 95       	ret
 5fc:	81 e0       	ldi	r24, 0x01	; 1
			return 1;
			break;
	}
	
	return 0;
}
 5fe:	08 95       	ret

00000600 <timer_init>:

//Roughly equivalent to the ol' Init_timerX(clkDiv, wgm)
//Return 0 if no error...
#if (!defined(TIMER_INIT_UNUSED) || !TIMER_INIT_UNUSED)
uint8_t timer_init(uint8_t timerNum, uint8_t clockDiv, uint8_t wgm)
{
 600:	0f 93       	push	r16
 602:	1f 93       	push	r17
 604:	18 2f       	mov	r17, r24
 606:	06 2f       	mov	r16, r22
	//set the waveform mode
	ERR_HANDLE_NUM(1,				\
 608:	64 2f       	mov	r22, r20
 60a:	df df       	rcall	.-66     	; 0x5ca <timer_setWGM>
 60c:	88 23       	and	r24, r24
 60e:	11 f0       	breq	.+4      	; 0x614 <timer_init+0x14>
 610:	80 61       	ori	r24, 0x10	; 16
 612:	05 c0       	rjmp	.+10     	; 0x61e <timer_init+0x1e>
		timer_setWGM(timerNum, wgm)	);

	//select the clock
	ERR_HANDLE_NUM(2,							\
 614:	81 2f       	mov	r24, r17
 616:	60 2f       	mov	r22, r16
 618:	af df       	rcall	.-162    	; 0x578 <timer_selectDivisor>
 61a:	81 11       	cpse	r24, r1
 61c:	80 62       	ori	r24, 0x20	; 32
		timer_selectDivisor(timerNum, clockDiv)	);
		
	return 0;
}
 61e:	1f 91       	pop	r17
 620:	0f 91       	pop	r16
 622:	08 95       	ret

00000624 <timer_compareMatchIntSetup>:
uint8_t timer_compareMatchIntSetup(uint8_t timerNum, uint8_t outputChannel,\
	  												uint8_t enable)
{
	uint8_t channelNum;

	if(timerNum >= MAXTIMERS)
 624:	84 30       	cpi	r24, 0x04	; 4
 626:	10 f0       	brcs	.+4      	; 0x62c <timer_compareMatchIntSetup+0x8>
 628:	81 e0       	ldi	r24, 0x01	; 1
 62a:	08 95       	ret
		return 1;

	if(outputChannel >= 2) //MAXCHANNELSPERTIMER)
 62c:	62 30       	cpi	r22, 0x02	; 2
 62e:	10 f0       	brcs	.+4      	; 0x634 <timer_compareMatchIntSetup+0x10>
 630:	82 e0       	ldi	r24, 0x02	; 2
 632:	08 95       	ret
 634:	44 23       	and	r20, r20
 636:	11 f0       	breq	.+4      	; 0x63c <timer_compareMatchIntSetup+0x18>
 638:	41 e0       	ldi	r20, 0x01	; 1
	channelNum = (timerNum<<4) + outputChannel;

	//Don't clear interrupts before disabling this one, or that defeats the purpose!
	// But do clear so we don't get unexpected overflows on init
	if(enable)
		cli();
 63a:	f8 94       	cli
	
	switch(channelNum)
 63c:	82 95       	swap	r24
 63e:	80 7f       	andi	r24, 0xF0	; 240
 640:	86 0f       	add	r24, r22
 642:	81 30       	cpi	r24, 0x01	; 1
 644:	a1 f0       	breq	.+40     	; 0x66e <timer_compareMatchIntSetup+0x4a>
 646:	81 30       	cpi	r24, 0x01	; 1
 648:	30 f0       	brcs	.+12     	; 0x656 <timer_compareMatchIntSetup+0x32>
 64a:	80 31       	cpi	r24, 0x10	; 16
 64c:	e1 f0       	breq	.+56     	; 0x686 <timer_compareMatchIntSetup+0x62>
 64e:	81 31       	cpi	r24, 0x11	; 17
 650:	31 f1       	breq	.+76     	; 0x69e <timer_compareMatchIntSetup+0x7a>
 652:	83 e0       	ldi	r24, 0x03	; 3
 654:	08 95       	ret
			break;
	   #endif
	   #if defined(OCIE0A)
		case 0x00:
//			setbit(OCIE0A, T0_TIMSK);
			writebit(OCIE0A, T0_TIMSK, enable);
 656:	44 23       	and	r20, r20
 658:	19 f0       	breq	.+6      	; 0x660 <timer_compareMatchIntSetup+0x3c>
 65a:	89 b7       	in	r24, 0x39	; 57
 65c:	80 61       	ori	r24, 0x10	; 16
 65e:	02 c0       	rjmp	.+4      	; 0x664 <timer_compareMatchIntSetup+0x40>
 660:	89 b7       	in	r24, 0x39	; 57
 662:	8f 7e       	andi	r24, 0xEF	; 239
 664:	89 bf       	out	0x39, r24	; 57
 666:	89 b7       	in	r24, 0x39	; 57
			// My OCD bit me in the ass, this was set to TIMSK by mistake(?)
			setbit(OCF0A, T0_TIFR);
 668:	88 b7       	in	r24, 0x38	; 56
 66a:	80 61       	ori	r24, 0x10	; 16
 66c:	23 c0       	rjmp	.+70     	; 0x6b4 <timer_compareMatchIntSetup+0x90>
			break;
	   #endif
	   #if defined(OCIE0B)
		case 0x01:
//			setbit(OCIE0B, T0_TIMSK);
			writebit(OCIE0B, T0_TIMSK, enable);
 66e:	44 23       	and	r20, r20
 670:	19 f0       	breq	.+6      	; 0x678 <timer_compareMatchIntSetup+0x54>
 672:	89 b7       	in	r24, 0x39	; 57
 674:	88 60       	ori	r24, 0x08	; 8
 676:	02 c0       	rjmp	.+4      	; 0x67c <timer_compareMatchIntSetup+0x58>
 678:	89 b7       	in	r24, 0x39	; 57
 67a:	87 7f       	andi	r24, 0xF7	; 247
 67c:	89 bf       	out	0x39, r24	; 57
 67e:	89 b7       	in	r24, 0x39	; 57
			// As was this...
			setbit(OCF0B, T0_TIFR);
 680:	88 b7       	in	r24, 0x38	; 56
 682:	88 60       	ori	r24, 0x08	; 8
 684:	17 c0       	rjmp	.+46     	; 0x6b4 <timer_compareMatchIntSetup+0x90>
			break;
	   #endif
	   #if defined(OCIE1A)
		case 0x10:
//			setbit(OCIE1A, T1_TIMSK);
			writebit(OCIE1A, T1_TIMSK, enable);
 686:	44 23       	and	r20, r20
 688:	19 f0       	breq	.+6      	; 0x690 <timer_compareMatchIntSetup+0x6c>
 68a:	89 b7       	in	r24, 0x39	; 57
 68c:	80 64       	ori	r24, 0x40	; 64
 68e:	02 c0       	rjmp	.+4      	; 0x694 <timer_compareMatchIntSetup+0x70>
 690:	89 b7       	in	r24, 0x39	; 57
 692:	8f 7b       	andi	r24, 0xBF	; 191
 694:	89 bf       	out	0x39, r24	; 57
 696:	89 b7       	in	r24, 0x39	; 57
			setbit(OCF1A, T1_TIFR);
 698:	88 b7       	in	r24, 0x38	; 56
 69a:	80 64       	ori	r24, 0x40	; 64
 69c:	0b c0       	rjmp	.+22     	; 0x6b4 <timer_compareMatchIntSetup+0x90>
			break;
	   #endif
	   #if defined(OCIE1B)
		case 0x11:
//			setbit(OCIE1B, T1_TIMSK);
			writebit(OCIE1B, T1_TIMSK, enable);
 69e:	44 23       	and	r20, r20
 6a0:	19 f0       	breq	.+6      	; 0x6a8 <timer_compareMatchIntSetup+0x84>
 6a2:	89 b7       	in	r24, 0x39	; 57
 6a4:	80 62       	ori	r24, 0x20	; 32
 6a6:	02 c0       	rjmp	.+4      	; 0x6ac <timer_compareMatchIntSetup+0x88>
 6a8:	89 b7       	in	r24, 0x39	; 57
 6aa:	8f 7d       	andi	r24, 0xDF	; 223
 6ac:	89 bf       	out	0x39, r24	; 57
 6ae:	89 b7       	in	r24, 0x39	; 57
			setbit(OCF1B, T1_TIFR);
 6b0:	88 b7       	in	r24, 0x38	; 56
 6b2:	80 62       	ori	r24, 0x20	; 32
 6b4:	88 bf       	out	0x38, r24	; 56
			break;
	}
	
	//Don't reenable interrupts here if disabling... just leave them as they were....
	// but do enable for init...
	if(enable)
 6b6:	44 23       	and	r20, r20
 6b8:	11 f4       	brne	.+4      	; 0x6be <timer_compareMatchIntSetup+0x9a>
 6ba:	80 e0       	ldi	r24, 0x00	; 0
 6bc:	08 95       	ret
		sei();
 6be:	78 94       	sei
 6c0:	80 e0       	ldi	r24, 0x00	; 0
	
	return 0;
}
 6c2:	08 95       	ret

000006c4 <timer_overflowIntEnable>:

#if (!defined(TIMER_OVERFLOWINTENABLE_UNUSED) \
		      || !TIMER_OVERFLOWINTENABLE_UNUSED)
uint8_t timer_overflowIntEnable(uint8_t timerNum)
{
	cli();
 6c4:	f8 94       	cli
	
	switch(timerNum)
 6c6:	88 23       	and	r24, r24
 6c8:	21 f0       	breq	.+8      	; 0x6d2 <timer_overflowIntEnable+0xe>
 6ca:	81 30       	cpi	r24, 0x01	; 1
 6cc:	41 f0       	breq	.+16     	; 0x6de <timer_overflowIntEnable+0x1a>
 6ce:	81 e0       	ldi	r24, 0x01	; 1
 6d0:	08 95       	ret
	{
		#if defined(T0_TIMSK)
		case 0:
			//Enable the overflow interrupt (don't forget to create a handler!)
			setbit(TOIE0, T0_TIMSK);
 6d2:	89 b7       	in	r24, 0x39	; 57
 6d4:	82 60       	ori	r24, 0x02	; 2
 6d6:	89 bf       	out	0x39, r24	; 57
			//Clear the overflow flag (OCD)...
			setbit(TOV0, T0_TIFR);
 6d8:	88 b7       	in	r24, 0x38	; 56
 6da:	82 60       	ori	r24, 0x02	; 2
 6dc:	05 c0       	rjmp	.+10     	; 0x6e8 <timer_overflowIntEnable+0x24>
			break; 
		#endif
		#if defined(T1_TIMSK)
		case 1:
			setbit(TOIE1, T1_TIMSK);
 6de:	89 b7       	in	r24, 0x39	; 57
 6e0:	84 60       	ori	r24, 0x04	; 4
 6e2:	89 bf       	out	0x39, r24	; 57
			setbit(TOV1, T1_TIFR);
 6e4:	88 b7       	in	r24, 0x38	; 56
 6e6:	84 60       	ori	r24, 0x04	; 4
 6e8:	88 bf       	out	0x38, r24	; 56
		#endif
		default:
			return 1;
	}
	
	sei();
 6ea:	78 94       	sei
 6ec:	80 e0       	ldi	r24, 0x00	; 0
	
	return 0;
}
 6ee:	08 95       	ret

000006f0 <usi_i2c_awaitStart>:
//   upon INIT
//   and when a different slave has been addressed
//      from an overflow interrupt
void usi_i2c_awaitStart(void)
{
	usi_i2c_state = USI_STATE_AWAITING_START;
 6f0:	10 92 f9 00 	sts	0x00F9, r1

   //Clear the interrupt flags, etc. first...
	// NOTE This will release SCL hold (i.e. different slave addressed)
   USISR = (1<<USISIF) //Start Condition Interrupt Flag
 6f4:	80 ee       	ldi	r24, 0xE0	; 224
 6f6:	8e b9       	out	0x0e, r24	; 14
         | (0<<USIDC)  //Data Collision Flag (Read-Only, not an interrupt)
         | (USICNT_MASK & 0); //Clear the USI counter


   //Configure the USI to look for Start-Condition
   USICR = (1<<USISIE) //Enable the start-condition interrupt
 6f8:	88 ea       	ldi	r24, 0xA8	; 168
 6fa:	8d b9       	out	0x0d, r24	; 13
         | (0<<USICS0) //  positive-edge
         | (0<<USICLK) //  4-bit counter counts on both external edges
         | (0<<USITC); // DON'T toggle the clock pin 
                       // (this should always be 0)

	setpinPORT(SDA_PIN, SDAPORT);
 6fc:	c0 9a       	sbi	0x18, 0	; 24
	setpinPORT(SCL_PIN, SCLPORT);
 6fe:	c2 9a       	sbi	0x18, 2	; 24

	setinPORT(SDA_PIN, SDAPORT);
 700:	b8 98       	cbi	0x17, 0	; 23
	//Enable SCL-hold during the start-condition 
	setoutPORT(SCL_PIN, SCLPORT);
 702:	ba 9a       	sbi	0x17, 2	; 23
}
 704:	08 95       	ret

00000706 <usi_i2c_awaitStartSCL>:
   (USISR = ((1<<USIOIF) | (USICNT_MASK & (count))))

//This is called after a start-condition
void usi_i2c_awaitStartSCL(void)
{
	usi_i2c_state = USI_STATE_AWAITING_START_SCL;
 706:	81 e0       	ldi	r24, 0x01	; 1
 708:	80 93 f9 00 	sts	0x00F9, r24

	//Before enabling the counter-overflow interrupt
	// make sure the flag is clear
	// this will also clear the counter... watch out!
	USISR = (1<<USIOIF);
 70c:	80 e4       	ldi	r24, 0x40	; 64
 70e:	8e b9       	out	0x0e, r24	; 14

   //Configure the USI to look for counter-overflow (start SCL received)
   USICR = (1<<USISIE) //Enable the start-condition interrupt
 710:	88 ef       	ldi	r24, 0xF8	; 248
 712:	8d b9       	out	0x0d, r24	; 13
	// However, if the start-SCL is too fast to detect, then we're screwed
	// all of, what, an interrupt-jump and a few instructions?
	//  Maybe revisit the zipped version (using a while loop instead of
	//   states)
	// also inline this function...
	USISR = (1<<USISIF) | (USICNT_MASK & 15);
 714:	8f e8       	ldi	r24, 0x8F	; 143
 716:	8e b9       	out	0x0e, r24	; 14
//	USISR = (USICNT_MASK & 15);
//	static uint8_t callCount = 0;
//	if(callCount < 15)
//		callCount++;
//	set_heartBlink(callCount);
}
 718:	08 95       	ret

0000071a <usi_i2c_slaveInit>:



void usi_i2c_slaveInit(void)
{
	usi_i2c_awaitStart();
 71a:	ea df       	rcall	.-44     	; 0x6f0 <usi_i2c_awaitStart>
}
 71c:	08 95       	ret

0000071e <__vector_13>:

uint8_t heartBlinkInternal = 0;

ISR(USI_START_vect)
{
 71e:	1f 92       	push	r1
 720:	0f 92       	push	r0
 722:	0f b6       	in	r0, 0x3f	; 63
 724:	0f 92       	push	r0
 726:	11 24       	eor	r1, r1
 728:	8f 93       	push	r24
	//THIS IS A HACK AND SHOULD NOT BE IMPLEMENTED:
//	while(getpinPORT(SCL_PIN, SCLPORT))
//	{};
	// Should be fixed now, with the new AWAITING_START_SCL state

	heartBlinkInternal++;
 72a:	80 91 fd 00 	lds	r24, 0x00FD
 72e:	8f 5f       	subi	r24, 0xFF	; 255
 730:	80 93 fd 00 	sts	0x00FD, r24
	//setinPORT(SDA_PIN, SDAPORT);
	//USIDR = 0xff;	

	//Set the pin directions...
	// Make sure, just in case a start-condition interrupts a slave-write...
	setinPORT(SDA_PIN, SDAPORT);
 734:	b8 98       	cbi	0x17, 0	; 23
	// Leave the CLOCK pin active for SCL-hold at the first overflow
	// (once we've received address/direction)
	setoutPORT(SCL_PIN, SDAPORT);
 736:	ba 9a       	sbi	0x17, 2	; 23
   (USISR = ((1<<USIOIF) | (USICNT_MASK & (count))))

//This is called after a start-condition
void usi_i2c_awaitStartSCL(void)
{
	usi_i2c_state = USI_STATE_AWAITING_START_SCL;
 738:	81 e0       	ldi	r24, 0x01	; 1
 73a:	80 93 f9 00 	sts	0x00F9, r24

	//Before enabling the counter-overflow interrupt
	// make sure the flag is clear
	// this will also clear the counter... watch out!
	USISR = (1<<USIOIF);
 73e:	80 e4       	ldi	r24, 0x40	; 64
 740:	8e b9       	out	0x0e, r24	; 14

   //Configure the USI to look for counter-overflow (start SCL received)
   USICR = (1<<USISIE) //Enable the start-condition interrupt
 742:	88 ef       	ldi	r24, 0xF8	; 248
 744:	8d b9       	out	0x0d, r24	; 13
	// However, if the start-SCL is too fast to detect, then we're screwed
	// all of, what, an interrupt-jump and a few instructions?
	//  Maybe revisit the zipped version (using a while loop instead of
	//   states)
	// also inline this function...
	USISR = (1<<USISIF) | (USICNT_MASK & 15);
 746:	8f e8       	ldi	r24, 0x8F	; 143
 748:	8e b9       	out	0x0e, r24	; 14
	//Indicate that the address hasn't yet been received
	// (it should be the first byte transmitted)
	usi_i2c_awaitStartSCL();

	//heartClear();
}
 74a:	8f 91       	pop	r24
 74c:	0f 90       	pop	r0
 74e:	0f be       	out	0x3f, r0	; 63
 750:	0f 90       	pop	r0
 752:	1f 90       	pop	r1
 754:	18 95       	reti

00000756 <edid_checkSummer>:
  return 0xff;
}


void edid_checkSummer(void)
{
 756:	e5 e6       	ldi	r30, 0x65	; 101
 758:	f0 e0       	ldi	r31, 0x00	; 0
  // in which case we shouldn't even get here.
  return 0xff;
}


void edid_checkSummer(void)
 75a:	80 e0       	ldi	r24, 0x00	; 0

	// Don't include the garbage checksum value...
	// it will be overwritten here...
	for(i=0; i<0x7f; i++)
	{
		sum += edidArray[i];
 75c:	91 91       	ld	r25, Z+
 75e:	89 0f       	add	r24, r25
	uint8_t i;
	uint8_t sum = 0;

	// Don't include the garbage checksum value...
	// it will be overwritten here...
	for(i=0; i<0x7f; i++)
 760:	90 e0       	ldi	r25, 0x00	; 0
 762:	e4 3e       	cpi	r30, 0xE4	; 228
 764:	f9 07       	cpc	r31, r25
 766:	d1 f7       	brne	.-12     	; 0x75c <edid_checkSummer+0x6>
	{
		sum += edidArray[i];
	}

	//Load the calculated checksum
	edidArray[0x7f] = (uint8_t)((uint8_t)0 - (uint8_t)(sum));
 768:	81 95       	neg	r24
 76a:	80 93 e4 00 	sts	0x00E4, r24
}
 76e:	08 95       	ret

00000770 <updateLEDs>:
*/
	updateLEDs();
}

void updateLEDs(void)
{
 770:	0f 93       	push	r16
 772:	1f 93       	push	r17
 774:	cf 93       	push	r28
 776:	df 93       	push	r29
 778:	00 e0       	ldi	r16, 0x00	; 0
 77a:	10 e0       	ldi	r17, 0x00	; 0
 77c:	c0 e0       	ldi	r28, 0x00	; 0
 77e:	d0 e0       	ldi	r29, 0x00	; 0
	for(i=0; i<3; i++)
	{
	//	if(ledState[i] != lastState[i])
		{
		//	ledsControlled = TRUE;
			lastState[i] = ledState[i];
 780:	fe 01       	movw	r30, r28
 782:	ec 50       	subi	r30, 0x0C	; 12
 784:	ff 4f       	sbci	r31, 0xFF	; 255
 786:	80 81       	ld	r24, Z
 788:	de 01       	movw	r26, r28
 78a:	af 5f       	subi	r26, 0xFF	; 255
 78c:	be 4f       	sbci	r27, 0xFE	; 254
 78e:	8c 93       	st	X, r24
			hfm_setPower(&(ledHFM[i]), ledState[i]);
 790:	60 81       	ld	r22, Z
 792:	c8 01       	movw	r24, r16
 794:	87 5f       	subi	r24, 0xF7	; 247
 796:	9e 4f       	sbci	r25, 0xFE	; 254
 798:	f2 dd       	rcall	.-1052   	; 0x37e <hfm_setPower>
 79a:	21 96       	adiw	r28, 0x01	; 1
 79c:	0c 5f       	subi	r16, 0xFC	; 252
 79e:	1f 4f       	sbci	r17, 0xFF	; 255
void updateLEDs(void)
{
	static uint8_t lastState[3] = {0,0,0};

	uint8_t i;
	for(i=0; i<3; i++)
 7a0:	c3 30       	cpi	r28, 0x03	; 3
 7a2:	d1 05       	cpc	r29, r1
 7a4:	69 f7       	brne	.-38     	; 0x780 <updateLEDs+0x10>
	}
	//hfm_setPower(&led_r, ledState[0]);
	//hfm_setPower(&led_g, ledState[1]);


	if(hfm_nextOutput(&(ledHFM[0])))
 7a6:	89 e0       	ldi	r24, 0x09	; 9
 7a8:	91 e0       	ldi	r25, 0x01	; 1
 7aa:	f2 dd       	rcall	.-1052   	; 0x390 <hfm_nextOutput>
 7ac:	88 23       	and	r24, r24
 7ae:	11 f0       	breq	.+4      	; 0x7b4 <updateLEDs+0x44>
		clrpinPORT(LED_R, LED_PORT);
 7b0:	c4 98       	cbi	0x18, 4	; 24
 7b2:	01 c0       	rjmp	.+2      	; 0x7b6 <updateLEDs+0x46>
	else
		setpinPORT(LED_R, LED_PORT);
 7b4:	c4 9a       	sbi	0x18, 4	; 24

	if(hfm_nextOutput(&(ledHFM[1])))
 7b6:	8d e0       	ldi	r24, 0x0D	; 13
 7b8:	91 e0       	ldi	r25, 0x01	; 1
 7ba:	ea dd       	rcall	.-1068   	; 0x390 <hfm_nextOutput>
 7bc:	88 23       	and	r24, r24
 7be:	11 f0       	breq	.+4      	; 0x7c4 <updateLEDs+0x54>
		clrpinPORT(LED_G, LED_PORT);
 7c0:	c3 98       	cbi	0x18, 3	; 24
 7c2:	01 c0       	rjmp	.+2      	; 0x7c6 <updateLEDs+0x56>
	else
		setpinPORT(LED_G, LED_PORT);
 7c4:	c3 9a       	sbi	0x18, 3	; 24

	if(hfm_nextOutput(&(ledHFM[2])))
 7c6:	81 e1       	ldi	r24, 0x11	; 17
 7c8:	91 e0       	ldi	r25, 0x01	; 1
 7ca:	e2 dd       	rcall	.-1084   	; 0x390 <hfm_nextOutput>
 7cc:	88 23       	and	r24, r24
 7ce:	11 f0       	breq	.+4      	; 0x7d4 <updateLEDs+0x64>
		clrpinPORT(LED_B, LED_PORT);
 7d0:	c1 98       	cbi	0x18, 1	; 24
 7d2:	01 c0       	rjmp	.+2      	; 0x7d6 <updateLEDs+0x66>
	else
		setpinPORT(LED_B, LED_PORT);
 7d4:	c1 9a       	sbi	0x18, 1	; 24
	//NYI:
	//if(ledState[2])

//	togglepinPORT(LED_R, LED_PORT);
//	togglepinPORT(LED_G, LED_PORT);
}
 7d6:	df 91       	pop	r29
 7d8:	cf 91       	pop	r28
 7da:	1f 91       	pop	r17
 7dc:	0f 91       	pop	r16
 7de:	08 95       	ret

000007e0 <updateLEDFader>:
void updateLEDFader(void)
{
	static uint8_t delay=0;
	static theta_t theta=2; //test = 2;

	delay++;
 7e0:	80 91 04 01 	lds	r24, 0x0104
 7e4:	8f 5f       	subi	r24, 0xFF	; 255
 7e6:	80 93 04 01 	sts	0x0104, r24
	if(delay == 0xff)
 7ea:	8f 3f       	cpi	r24, 0xFF	; 255
 7ec:	49 f4       	brne	.+18     	; 0x800 <updateLEDFader+0x20>
		theta++;
 7ee:	80 91 e6 00 	lds	r24, 0x00E6
 7f2:	90 91 e7 00 	lds	r25, 0x00E7
 7f6:	01 96       	adiw	r24, 0x01	; 1
 7f8:	90 93 e7 00 	sts	0x00E7, r25
 7fc:	80 93 e6 00 	sts	0x00E6, r24

	if(theta == SINE_PI*3)
 800:	80 91 e6 00 	lds	r24, 0x00E6
 804:	90 91 e7 00 	lds	r25, 0x00E7
 808:	23 e0       	ldi	r18, 0x03	; 3
 80a:	80 30       	cpi	r24, 0x00	; 0
 80c:	92 07       	cpc	r25, r18
 80e:	21 f4       	brne	.+8      	; 0x818 <updateLEDFader+0x38>
		theta = 0;
 810:	10 92 e7 00 	sts	0x00E7, r1
 814:	10 92 e6 00 	sts	0x00E6, r1



	if(theta < SINE_2PI)
 818:	80 91 e6 00 	lds	r24, 0x00E6
 81c:	90 91 e7 00 	lds	r25, 0x00E7
 820:	42 e0       	ldi	r20, 0x02	; 2
 822:	80 30       	cpi	r24, 0x00	; 0
 824:	94 07       	cpc	r25, r20
 826:	34 f4       	brge	.+12     	; 0x834 <updateLEDFader+0x54>
		ledState[0] = \
			(uint8_t)((int16_t)sineRaw8(theta - SINE_PI_2) + (int16_t)127); 
 828:	80 58       	subi	r24, 0x80	; 128
 82a:	90 40       	sbci	r25, 0x00	; 0
 82c:	83 dc       	rcall	.-1786   	; 0x134 <sineRaw8>
 82e:	81 58       	subi	r24, 0x81	; 129
		theta = 0;



	if(theta < SINE_2PI)
		ledState[0] = \
 830:	80 93 f4 00 	sts	0x00F4, r24
			(uint8_t)((int16_t)sineRaw8(theta - SINE_PI_2) + (int16_t)127); 

	if((theta > SINE_PI) && (theta < SINE_PI*3))
 834:	80 91 e6 00 	lds	r24, 0x00E6
 838:	90 91 e7 00 	lds	r25, 0x00E7
 83c:	9c 01       	movw	r18, r24
 83e:	21 50       	subi	r18, 0x01	; 1
 840:	31 40       	sbci	r19, 0x01	; 1
 842:	41 e0       	ldi	r20, 0x01	; 1
 844:	2f 3f       	cpi	r18, 0xFF	; 255
 846:	34 07       	cpc	r19, r20
 848:	30 f4       	brcc	.+12     	; 0x856 <updateLEDFader+0x76>
	  	ledState[1] = \
		 	(uint8_t)((int16_t)sineRaw8(theta - SINE_PI_2 - SINE_PI) 
 84a:	80 58       	subi	r24, 0x80	; 128
 84c:	91 40       	sbci	r25, 0x01	; 1
 84e:	72 dc       	rcall	.-1820   	; 0x134 <sineRaw8>
 850:	81 58       	subi	r24, 0x81	; 129
	if(theta < SINE_2PI)
		ledState[0] = \
			(uint8_t)((int16_t)sineRaw8(theta - SINE_PI_2) + (int16_t)127); 

	if((theta > SINE_PI) && (theta < SINE_PI*3))
	  	ledState[1] = \
 852:	80 93 f5 00 	sts	0x00F5, r24
		 	(uint8_t)((int16_t)sineRaw8(theta - SINE_PI_2 - SINE_PI) 
				+ (int16_t)127);	  

	if(theta > SINE_2PI)
 856:	80 91 e6 00 	lds	r24, 0x00E6
 85a:	90 91 e7 00 	lds	r25, 0x00E7
 85e:	22 e0       	ldi	r18, 0x02	; 2
 860:	81 30       	cpi	r24, 0x01	; 1
 862:	92 07       	cpc	r25, r18
 864:	1c f0       	brlt	.+6      	; 0x86c <updateLEDFader+0x8c>
		ledState[2] = \
			(uint8_t)((int16_t)sineRaw8(theta - SINE_PI_2 - SINE_2PI)
 866:	80 58       	subi	r24, 0x80	; 128
 868:	92 40       	sbci	r25, 0x02	; 2
 86a:	06 c0       	rjmp	.+12     	; 0x878 <updateLEDFader+0x98>
				+ (int16_t)127);
	else if(theta < SINE_PI)
 86c:	8f 3f       	cpi	r24, 0xFF	; 255
 86e:	91 05       	cpc	r25, r1
 870:	09 f0       	breq	.+2      	; 0x874 <updateLEDFader+0x94>
 872:	34 f4       	brge	.+12     	; 0x880 <updateLEDFader+0xa0>
		ledState[2] = \
			(uint8_t)((int16_t)sineRaw8(theta - SINE_PI_2 + SINE_PI) 
 874:	80 58       	subi	r24, 0x80	; 128
 876:	9f 4f       	sbci	r25, 0xFF	; 255
 878:	5d dc       	rcall	.-1862   	; 0x134 <sineRaw8>
 87a:	81 58       	subi	r24, 0x81	; 129
	if(theta > SINE_2PI)
		ledState[2] = \
			(uint8_t)((int16_t)sineRaw8(theta - SINE_PI_2 - SINE_2PI)
				+ (int16_t)127);
	else if(theta < SINE_PI)
		ledState[2] = \
 87c:	80 93 f6 00 	sts	0x00F6, r24
	if(theta > SINE_2PI)
		ledState[2] = ((sineRaw(theta - SINE_PI_2 - SINE_2PI)>>8) + 127);
	else if(theta < SINE_PI)
		ledState[2] = ((sineRaw(theta - SINE_PI_2 + SINE_PI)>>8) + 127);
*/
	updateLEDs();
 880:	77 df       	rcall	.-274    	; 0x770 <updateLEDs>
}
 882:	08 95       	ret

00000884 <main>:
//	togglepinPORT(LED_G, LED_PORT);
}
#endif

int main(void)
{
 884:	cf 93       	push	r28
 886:	df 93       	push	r29
 888:	c0 e0       	ldi	r28, 0x00	; 0
 88a:	d0 e0       	ldi	r29, 0x00	; 0
#if FADER_ENABLED
	uint8_t i;
	for(i=0; i<3; i++)
		hfm_setup(&(ledHFM[i]), 0, 255);
 88c:	ce 01       	movw	r24, r28
 88e:	87 5f       	subi	r24, 0xF7	; 247
 890:	9e 4f       	sbci	r25, 0xFE	; 254
 892:	60 e0       	ldi	r22, 0x00	; 0
 894:	4f ef       	ldi	r20, 0xFF	; 255
 896:	67 dd       	rcall	.-1330   	; 0x366 <hfm_setup>
 898:	24 96       	adiw	r28, 0x04	; 4

int main(void)
{
#if FADER_ENABLED
	uint8_t i;
	for(i=0; i<3; i++)
 89a:	cc 30       	cpi	r28, 0x0C	; 12
 89c:	d1 05       	cpc	r29, r1
 89e:	b1 f7       	brne	.-20     	; 0x88c <main+0x8>

	//!!! WDT could cause problems... this probably should be inited earlier and called everywhere...
	//INIT_HEARTBEAT(HEARTBEATPIN, HEARTBEAT, HEARTCONNECTION);


	init_heartBeat();
 8a0:	3d dd       	rcall	.-1414   	; 0x31c <init_heartBeat>

	setHeartRate(0);	
 8a2:	80 e0       	ldi	r24, 0x00	; 0
 8a4:	57 dc       	rcall	.-1874   	; 0x154 <setHeartRate>

	//Blink until the EDID is read...
	//This is hokey...
	//set_heartBlink(1);

	edid_checkSummer();
 8a6:	57 df       	rcall	.-338    	; 0x756 <edid_checkSummer>



void usi_i2c_slaveInit(void)
{
	usi_i2c_awaitStart();
 8a8:	23 df       	rcall	.-442    	; 0x6f0 <usi_i2c_awaitStart>
	edid_checkSummer();

	usi_i2c_slaveInit();

#if FADER_ENABLED
	setoutPORT(LED_R, LED_PORT);
 8aa:	bc 9a       	sbi	0x17, 4	; 23
	setoutPORT(LED_G, LED_PORT);
 8ac:	bb 9a       	sbi	0x17, 3	; 23
	setpinPORT(LED_R, LED_PORT);
 8ae:	c4 9a       	sbi	0x18, 4	; 24
	setpinPORT(LED_G, LED_PORT);
 8b0:	c3 9a       	sbi	0x18, 3	; 24
//	set_heartBlink(retVal);

	while(1)
	{
#if FADER_ENABLED
		if(!ledsControlled)
 8b2:	80 91 00 01 	lds	r24, 0x0100
 8b6:	88 23       	and	r24, r24
 8b8:	41 f4       	brne	.+16     	; 0x8ca <main+0x46>
		{
			extern uint8_t heartBlink; 

			if(heartBlink)
 8ba:	80 91 e8 00 	lds	r24, 0x00E8
 8be:	88 23       	and	r24, r24
 8c0:	11 f0       	breq	.+4      	; 0x8c6 <main+0x42>
				heartUpdate();
 8c2:	f8 dc       	rcall	.-1552   	; 0x2b4 <heartUpdate>
 8c4:	f6 cf       	rjmp	.-20     	; 0x8b2 <main+0x2e>
			else
				updateLEDFader();
 8c6:	8c df       	rcall	.-232    	; 0x7e0 <updateLEDFader>
 8c8:	f4 cf       	rjmp	.-24     	; 0x8b2 <main+0x2e>
		// 			(how did it start up again? Something to do with an
		//           uninitialized value in HFM?)
		else
		{
			// The heartbeat may have been in input (off) mode when switched
			setoutPORT(LED_B, LED_PORT);
 8ca:	b9 9a       	sbi	0x17, 1	; 23

			updateLEDs();
 8cc:	51 df       	rcall	.-350    	; 0x770 <updateLEDs>
 8ce:	f1 cf       	rjmp	.-30     	; 0x8b2 <main+0x2e>

000008d0 <__vector_14>:
uint8_t byteNum = 0;

//Basically, everything after the start-condition
// ACK and bytes...
ISR(USI_OVF_vect)
{
 8d0:	1f 92       	push	r1
 8d2:	0f 92       	push	r0
 8d4:	0f b6       	in	r0, 0x3f	; 63
 8d6:	0f 92       	push	r0
 8d8:	11 24       	eor	r1, r1
 8da:	2f 93       	push	r18
 8dc:	3f 93       	push	r19
 8de:	4f 93       	push	r20
 8e0:	5f 93       	push	r21
 8e2:	6f 93       	push	r22
 8e4:	7f 93       	push	r23
 8e6:	8f 93       	push	r24
 8e8:	9f 93       	push	r25
 8ea:	af 93       	push	r26
 8ec:	bf 93       	push	r27
 8ee:	ef 93       	push	r30
 8f0:	ff 93       	push	r31
	// start condition.


	//These cases are the same as AWAITING, except if we're here,
	// then we're no longer awaiting them...
	switch(usi_i2c_state)
 8f2:	80 91 f9 00 	lds	r24, 0x00F9
 8f6:	82 30       	cpi	r24, 0x02	; 2
 8f8:	89 f0       	breq	.+34     	; 0x91c <__vector_14+0x4c>
 8fa:	83 30       	cpi	r24, 0x03	; 3
 8fc:	20 f4       	brcc	.+8      	; 0x906 <__vector_14+0x36>
 8fe:	81 30       	cpi	r24, 0x01	; 1
 900:	09 f0       	breq	.+2      	; 0x904 <__vector_14+0x34>
 902:	b2 c0       	rjmp	.+356    	; 0xa68 <__vector_14+0x198>
 904:	06 c0       	rjmp	.+12     	; 0x912 <__vector_14+0x42>
 906:	83 30       	cpi	r24, 0x03	; 3
 908:	09 f1       	breq	.+66     	; 0x94c <__vector_14+0x7c>
 90a:	84 30       	cpi	r24, 0x04	; 4
 90c:	09 f0       	breq	.+2      	; 0x910 <__vector_14+0x40>
 90e:	ac c0       	rjmp	.+344    	; 0xa68 <__vector_14+0x198>
 910:	5d c0       	rjmp	.+186    	; 0x9cc <__vector_14+0xfc>
		//  data can be transmitted (this was a BITCH to find)
		//  in other words, there are 17 clock edges between the start-
		//  condition and having fully received the r/w bit
		case USI_STATE_START_SCL_RECEIVED:
	//		usi_i2c_awaitAddress();
			usi_i2c_state = USI_STATE_AWAITING_ADDRESS;
 912:	82 e0       	ldi	r24, 0x02	; 2
 914:	80 93 f9 00 	sts	0x00F9, r24

		   //Clear the Start-Condition flag to release SCL
			// ALSO the Overflow flag for the same reason
			// ALSO: set the counter
			//   16 clock edges will signal 8 bits received (address+r/w)
			USISR = (1<<USISIF) //Start Condition Interrupt Flag
 918:	80 ec       	ldi	r24, 0xC0	; 192
 91a:	14 c0       	rjmp	.+40     	; 0x944 <__vector_14+0x74>

			break;
		case USI_STATE_ADDRESS_RECEIVED:
			{};

			byteNum = 0;
 91c:	10 92 ff 00 	sts	0x00FF, r1
			//heartClear();
			//Check to see if it's ours...
			uint8_t udrTemp = USIDR;
 920:	8f b1       	in	r24, 0x0f	; 15
			//1 = master-read (slave-writes to SDA)
			//0 = master-write (slave-reads from SDA)
			usi_i2c_readFromSlave = udrTemp & 0x01;
 922:	98 2f       	mov	r25, r24
 924:	91 70       	andi	r25, 0x01	; 1
 926:	90 93 fa 00 	sts	0x00FA, r25
			usi_i2c_requestedAddress = udrTemp >> 1;
 92a:	86 95       	lsr	r24
 92c:	80 93 fe 00 	sts	0x00FE, r24
			
			//From the manual:
			// When the slave is addressed, it holds the SDA line low during 
			// the acknowledgment cycle before holding the SCL line low again
			if( usi_i2c_isMyAddress(usi_i2c_requestedAddress) )
 930:	80 36       	cpi	r24, 0x60	; 96
 932:	11 f0       	breq	.+4      	; 0x938 <__vector_14+0x68>
 934:	80 35       	cpi	r24, 0x50	; 80
 936:	41 f4       	brne	.+16     	; 0x948 <__vector_14+0x78>
				//  the next falling edge triggers the AWAITING_ACK case below
				//  which releases bit 6 from the SDA pin
				//  The master pulls it low again for a STOP condition
				// It might be wiser to just set the PORT value...
				//USIDR = 0x3f; 
				USIDR = 0x00;
 938:	1f b8       	out	0x0f, r1	; 15
				setoutPORT(SDA_PIN, SDAPORT);
 93a:	b8 9a       	sbi	0x17, 0	; 23

	         usi_i2c_state = USI_STATE_AWAITING_ACK;
 93c:	83 e0       	ldi	r24, 0x03	; 3
 93e:	80 93 f9 00 	sts	0x00F9, r24

	         //FTM:
	         // (The USI Counter Register is set to 14 before releasing SCL)
				USI_I2C_OVERFLOW_RELEASE_SCL_AND_SET_COUNTER(14);
 942:	8e e4       	ldi	r24, 0x4E	; 78
 944:	8e b9       	out	0x0e, r24	; 14
 946:	93 c0       	rjmp	.+294    	; 0xa6e <__vector_14+0x19e>
			}
			else //Another slave was addressed
				usi_i2c_awaitStart();
 948:	d3 de       	rcall	.-602    	; 0x6f0 <usi_i2c_awaitStart>
 94a:	91 c0       	rjmp	.+290    	; 0xa6e <__vector_14+0x19e>

			break;
		//ACK has been transmitted from/to this device...
		case USI_STATE_ACK_COMPLETE:
			if(!usi_i2c_readFromSlave)	//slaveRead
 94c:	80 91 fa 00 	lds	r24, 0x00FA
 950:	88 23       	and	r24, r24
 952:	11 f4       	brne	.+4      	; 0x958 <__vector_14+0x88>
			{
				//Release SDA from the ACK (we'll be reading...)
				setinPORT(SDA_PIN, SDAPORT);
 954:	b8 98       	cbi	0x17, 0	; 23
 956:	35 c0       	rjmp	.+106    	; 0x9c2 <__vector_14+0xf2>
				// actually reading a byte, but I've done it for testing...
				// but if that's the case, then the byteToTransmit will be 
				// decremented anyhow... Not sure how to handle this yet...
				// OTOH: if a read is requested a byte MUST be transferred
				// otherwise a bit-7 = 0 loaded would prevent a master-stop
				masterACK = !(USIDR & 0x01);
 958:	9f b1       	in	r25, 0x0f	; 15

				if(byteNum)// && !(USIDR & 0x01))
 95a:	80 91 ff 00 	lds	r24, 0x00FF
 95e:	88 23       	and	r24, r24
 960:	29 f0       	breq	.+10     	; 0x96c <__vector_14+0x9c>
				{
					heartBlinkInternal+= 0x10;
 962:	80 91 fd 00 	lds	r24, 0x00FD
 966:	80 5f       	subi	r24, 0xF0	; 240
 968:	80 93 fd 00 	sts	0x00FD, r24
				//USIDR = usi_i2c_byteToTransmit;

				//if we load the next byte and its bit7 is 0
				// it will hold SDA low when the master tries to 
				// pull it high for a stop-condition!
				if(masterACK)
 96c:	90 fd       	sbrc	r25, 0
 96e:	26 c0       	rjmp	.+76     	; 0x9bc <__vector_14+0xec>
{
//	static uint8_t temp = 0;

//	return temp++;

  if(usi_i2c_requestedAddress == USI_I2C_MYEDIDADDRESS)
 970:	80 91 fe 00 	lds	r24, 0x00FE
 974:	80 35       	cpi	r24, 0x50	; 80
 976:	89 f4       	brne	.+34     	; 0x99a <__vector_14+0xca>
  {
	uint8_t temp = edidArray[edidArrayIndex];
 978:	90 91 f8 00 	lds	r25, 0x00F8
 97c:	e9 2f       	mov	r30, r25
 97e:	f0 e0       	ldi	r31, 0x00	; 0
 980:	eb 59       	subi	r30, 0x9B	; 155
 982:	ff 4f       	sbci	r31, 0xFF	; 255
 984:	80 81       	ld	r24, Z

	ledsControlled = FALSE;
 986:	10 92 00 01 	sts	0x0100, r1
	if(masterACKed)
	{
		incrementEDIDIndex();
 98a:	9f 5f       	subi	r25, 0xFF	; 255
 98c:	90 93 f8 00 	sts	0x00F8, r25
 990:	90 38       	cpi	r25, 0x80	; 128
 992:	a9 f4       	brne	.+42     	; 0x9be <__vector_14+0xee>
 994:	10 92 f8 00 	sts	0x00F8, r1
 998:	12 c0       	rjmp	.+36     	; 0x9be <__vector_14+0xee>

//	edidArrayIndex &= 0x07;

	return temp;
  }
  else if (usi_i2c_requestedAddress == USI_I2C_MYLEDADDRESS)
 99a:	80 36       	cpi	r24, 0x60	; 96
 99c:	79 f4       	brne	.+30     	; 0x9bc <__vector_14+0xec>
  {
	uint8_t temp = ledState[ledIndex];
 99e:	90 91 f7 00 	lds	r25, 0x00F7
 9a2:	e9 2f       	mov	r30, r25
 9a4:	f0 e0       	ldi	r31, 0x00	; 0
 9a6:	ec 50       	subi	r30, 0x0C	; 12
 9a8:	ff 4f       	sbci	r31, 0xFF	; 255
 9aa:	80 81       	ld	r24, Z

	if(masterACKed)
	{
		incrementLEDIndex();
 9ac:	9f 5f       	subi	r25, 0xFF	; 255
 9ae:	90 93 f7 00 	sts	0x00F7, r25
 9b2:	93 30       	cpi	r25, 0x03	; 3
 9b4:	21 f4       	brne	.+8      	; 0x9be <__vector_14+0xee>
 9b6:	10 92 f7 00 	sts	0x00F7, r1
 9ba:	01 c0       	rjmp	.+2      	; 0x9be <__vector_14+0xee>
				// it will hold SDA low when the master tries to 
				// pull it high for a stop-condition!
				if(masterACK)
					USIDR = nextByteToTransmit(masterACK);
				else
					USIDR = 0xff;
 9bc:	8f ef       	ldi	r24, 0xFF	; 255
 9be:	8f b9       	out	0x0f, r24	; 15

				//Decrement IF the master sent ACK...
				//if(masterACK)
				//	usi_i2c_byteToTransmit--;
				
				setoutPORT(SDA_PIN, SDAPORT);
 9c0:	b8 9a       	sbi	0x17, 0	; 23
			}

			usi_i2c_state = USI_STATE_AWAITING_BYTE;
 9c2:	84 e0       	ldi	r24, 0x04	; 4
 9c4:	80 93 f9 00 	sts	0x00F9, r24

			USI_I2C_OVERFLOW_RELEASE_SCL_AND_SET_COUNTER(0);
 9c8:	80 e4       	ldi	r24, 0x40	; 64
 9ca:	bc cf       	rjmp	.-136    	; 0x944 <__vector_14+0x74>
			//heartClear();
			break;
		case USI_STATE_BYTE_COMPLETE:  //BYTE transmitted/received
			byteNum++;
 9cc:	90 91 ff 00 	lds	r25, 0x00FF
 9d0:	9f 5f       	subi	r25, 0xFF	; 255
 9d2:	90 93 ff 00 	sts	0x00FF, r25
			// Get the byte (if receiving)
			if(!usi_i2c_readFromSlave)
 9d6:	80 91 fa 00 	lds	r24, 0x00FA
 9da:	88 23       	and	r24, r24
 9dc:	f1 f5       	brne	.+124    	; 0xa5a <__vector_14+0x18a>
			{
				processReceivedByte(USIDR, byteNum);
 9de:	8f b1       	in	r24, 0x0f	; 15
	ledIndex %= 3;\
}

void processReceivedByte(uint8_t receivedByte, uint8_t byteNum)
{
  if(usi_i2c_requestedAddress == USI_I2C_MYEDIDADDRESS)
 9e0:	20 91 fe 00 	lds	r18, 0x00FE
 9e4:	20 35       	cpi	r18, 0x50	; 80
 9e6:	b1 f4       	brne	.+44     	; 0xa14 <__vector_14+0x144>
  {
	if(byteNum == 1)
 9e8:	91 30       	cpi	r25, 0x01	; 1
 9ea:	21 f4       	brne	.+8      	; 0x9f4 <__vector_14+0x124>
	{
		// Could be that the EDID request doesn't send a byte-index...?
		//ledsControlled = FALSE;
		setEDIDIndex(receivedByte);
 9ec:	8f 77       	andi	r24, 0x7F	; 127
 9ee:	80 93 f8 00 	sts	0x00F8, r24
 9f2:	2b c0       	rjmp	.+86     	; 0xa4a <__vector_14+0x17a>
//		edidArrayIndex = receivedByte;
	}
	else
	{
		edidArray[edidArrayIndex] = receivedByte;
 9f4:	90 91 f8 00 	lds	r25, 0x00F8
 9f8:	e9 2f       	mov	r30, r25
 9fa:	f0 e0       	ldi	r31, 0x00	; 0
 9fc:	eb 59       	subi	r30, 0x9B	; 155
 9fe:	ff 4f       	sbci	r31, 0xFF	; 255
 a00:	80 83       	st	Z, r24

		incrementEDIDIndex();
 a02:	89 2f       	mov	r24, r25
 a04:	8f 5f       	subi	r24, 0xFF	; 255
 a06:	80 93 f8 00 	sts	0x00F8, r24
 a0a:	80 38       	cpi	r24, 0x80	; 128
 a0c:	f1 f4       	brne	.+60     	; 0xa4a <__vector_14+0x17a>
 a0e:	10 92 f8 00 	sts	0x00F8, r1
 a12:	1b c0       	rjmp	.+54     	; 0xa4a <__vector_14+0x17a>
		//edidArrayIndex++;
		//edidArrayIndex &= 0x07;
	}
  }
  else if (usi_i2c_requestedAddress == USI_I2C_MYLEDADDRESS)
 a14:	20 36       	cpi	r18, 0x60	; 96
 a16:	c9 f4       	brne	.+50     	; 0xa4a <__vector_14+0x17a>
  {
	
	ledsControlled = TRUE;
 a18:	21 e0       	ldi	r18, 0x01	; 1
 a1a:	20 93 00 01 	sts	0x0100, r18

	if(byteNum == 1)
 a1e:	91 30       	cpi	r25, 0x01	; 1
 a20:	29 f4       	brne	.+10     	; 0xa2c <__vector_14+0x15c>
	{
		setLEDIndex(receivedByte);
 a22:	63 e0       	ldi	r22, 0x03	; 3
 a24:	55 d0       	rcall	.+170    	; 0xad0 <__udivmodqi4>
 a26:	90 93 f7 00 	sts	0x00F7, r25
 a2a:	0f c0       	rjmp	.+30     	; 0xa4a <__vector_14+0x17a>
	}
	else
	{
		ledState[ledIndex] = receivedByte;
 a2c:	90 91 f7 00 	lds	r25, 0x00F7
 a30:	e9 2f       	mov	r30, r25
 a32:	f0 e0       	ldi	r31, 0x00	; 0
 a34:	ec 50       	subi	r30, 0x0C	; 12
 a36:	ff 4f       	sbci	r31, 0xFF	; 255
 a38:	80 83       	st	Z, r24
		incrementLEDIndex();
 a3a:	89 2f       	mov	r24, r25
 a3c:	8f 5f       	subi	r24, 0xFF	; 255
 a3e:	80 93 f7 00 	sts	0x00F7, r24
 a42:	83 30       	cpi	r24, 0x03	; 3
 a44:	11 f4       	brne	.+4      	; 0xa4a <__vector_14+0x17a>
 a46:	10 92 f7 00 	sts	0x00F7, r1
			// Get the byte (if receiving)
			if(!usi_i2c_readFromSlave)
			{
				processReceivedByte(USIDR, byteNum);
				//usi_i2c_receivedByte = USIDR;
				heartBlinkInternal = usi_i2c_receivedByte;
 a4a:	80 91 fc 00 	lds	r24, 0x00FC
 a4e:	80 93 fd 00 	sts	0x00FD, r24
				//set_heartBlink(heartBlinkInternal);
//				heartClear();

				// Also, we need to send an ACK...
				USIDR = 0x3f;
 a52:	8f e3       	ldi	r24, 0x3F	; 63
 a54:	8f b9       	out	0x0f, r24	; 15
				setoutPORT(SDA_PIN, SDAPORT);
 a56:	b8 9a       	sbi	0x17, 0	; 23
 a58:	03 c0       	rjmp	.+6      	; 0xa60 <__vector_14+0x190>
			}
			else //slaveWrite
			{
				// The master sends the ACK in this case...
				setinPORT(SDA_PIN, SDAPORT);
 a5a:	b8 98       	cbi	0x17, 0	; 23
				USIDR = 0xff;
 a5c:	8f ef       	ldi	r24, 0xFF	; 255
 a5e:	8f b9       	out	0x0f, r24	; 15
//				heartClear();
			}

			//Reload the counter to interrupt after the ACK
			USI_I2C_OVERFLOW_RELEASE_SCL_AND_SET_COUNTER(14);
 a60:	8e e4       	ldi	r24, 0x4E	; 78
 a62:	8e b9       	out	0x0e, r24	; 14

			usi_i2c_state = USI_STATE_AWAITING_ACK;
 a64:	83 e0       	ldi	r24, 0x03	; 3
 a66:	01 c0       	rjmp	.+2      	; 0xa6a <__vector_14+0x19a>
			//heartClear();
         break;
		//Shouldn't get here...
		default:
			usi_i2c_state = 0x77;
 a68:	87 e7       	ldi	r24, 0x77	; 119
 a6a:	80 93 f9 00 	sts	0x00F9, r24
			break;
	}


	//I want it to blink if it's not yet read the EDID...
	if((usi_i2c_readFromSlave)
 a6e:	80 91 fa 00 	lds	r24, 0x00FA
 a72:	88 23       	and	r24, r24
 a74:	51 f0       	breq	.+20     	; 0xa8a <__vector_14+0x1ba>
 a76:	80 91 f9 00 	lds	r24, 0x00F9
 a7a:	84 30       	cpi	r24, 0x04	; 4
 a7c:	31 f4       	brne	.+12     	; 0xa8a <__vector_14+0x1ba>
 a7e:	80 91 fe 00 	lds	r24, 0x00FE
 a82:	80 35       	cpi	r24, 0x50	; 80
 a84:	11 f4       	brne	.+4      	; 0xa8a <__vector_14+0x1ba>
		 && (usi_i2c_state == 4)
		 && (usi_i2c_requestedAddress == USI_I2C_MYEDIDADDRESS))
		set_heartBlink(0);
 a86:	80 e0       	ldi	r24, 0x00	; 0
 a88:	97 db       	rcall	.-2258   	; 0x1b8 <set_heartBlink>
	//set_heartBlink((!(usi_i2c_readFromSlave)<<4) | usi_i2c_state);
}
 a8a:	ff 91       	pop	r31
 a8c:	ef 91       	pop	r30
 a8e:	bf 91       	pop	r27
 a90:	af 91       	pop	r26
 a92:	9f 91       	pop	r25
 a94:	8f 91       	pop	r24
 a96:	7f 91       	pop	r23
 a98:	6f 91       	pop	r22
 a9a:	5f 91       	pop	r21
 a9c:	4f 91       	pop	r20
 a9e:	3f 91       	pop	r19
 aa0:	2f 91       	pop	r18
 aa2:	0f 90       	pop	r0
 aa4:	0f be       	out	0x3f, r0	; 63
 aa6:	0f 90       	pop	r0
 aa8:	1f 90       	pop	r1
 aaa:	18 95       	reti

00000aac <__mulhi3>:
 aac:	55 27       	eor	r21, r21
 aae:	00 24       	eor	r0, r0

00000ab0 <__mulhi3_loop>:
 ab0:	80 ff       	sbrs	r24, 0
 ab2:	02 c0       	rjmp	.+4      	; 0xab8 <__mulhi3_skip1>
 ab4:	06 0e       	add	r0, r22
 ab6:	57 1f       	adc	r21, r23

00000ab8 <__mulhi3_skip1>:
 ab8:	66 0f       	add	r22, r22
 aba:	77 1f       	adc	r23, r23
 abc:	61 15       	cp	r22, r1
 abe:	71 05       	cpc	r23, r1
 ac0:	21 f0       	breq	.+8      	; 0xaca <__mulhi3_exit>
 ac2:	96 95       	lsr	r25
 ac4:	87 95       	ror	r24
 ac6:	00 97       	sbiw	r24, 0x00	; 0
 ac8:	99 f7       	brne	.-26     	; 0xab0 <__mulhi3_loop>

00000aca <__mulhi3_exit>:
 aca:	95 2f       	mov	r25, r21
 acc:	80 2d       	mov	r24, r0
 ace:	08 95       	ret

00000ad0 <__udivmodqi4>:
 ad0:	99 1b       	sub	r25, r25
 ad2:	79 e0       	ldi	r23, 0x09	; 9
 ad4:	04 c0       	rjmp	.+8      	; 0xade <__udivmodqi4_ep>

00000ad6 <__udivmodqi4_loop>:
 ad6:	99 1f       	adc	r25, r25
 ad8:	96 17       	cp	r25, r22
 ada:	08 f0       	brcs	.+2      	; 0xade <__udivmodqi4_ep>
 adc:	96 1b       	sub	r25, r22

00000ade <__udivmodqi4_ep>:
 ade:	88 1f       	adc	r24, r24
 ae0:	7a 95       	dec	r23
 ae2:	c9 f7       	brne	.-14     	; 0xad6 <__udivmodqi4_loop>
 ae4:	80 95       	com	r24
 ae6:	08 95       	ret

00000ae8 <__udivmodhi4>:
 ae8:	aa 1b       	sub	r26, r26
 aea:	bb 1b       	sub	r27, r27
 aec:	51 e1       	ldi	r21, 0x11	; 17
 aee:	07 c0       	rjmp	.+14     	; 0xafe <__udivmodhi4_ep>

00000af0 <__udivmodhi4_loop>:
 af0:	aa 1f       	adc	r26, r26
 af2:	bb 1f       	adc	r27, r27
 af4:	a6 17       	cp	r26, r22
 af6:	b7 07       	cpc	r27, r23
 af8:	10 f0       	brcs	.+4      	; 0xafe <__udivmodhi4_ep>
 afa:	a6 1b       	sub	r26, r22
 afc:	b7 0b       	sbc	r27, r23

00000afe <__udivmodhi4_ep>:
 afe:	88 1f       	adc	r24, r24
 b00:	99 1f       	adc	r25, r25
 b02:	5a 95       	dec	r21
 b04:	a9 f7       	brne	.-22     	; 0xaf0 <__udivmodhi4_loop>
 b06:	80 95       	com	r24
 b08:	90 95       	com	r25
 b0a:	bc 01       	movw	r22, r24
 b0c:	cd 01       	movw	r24, r26
 b0e:	08 95       	ret

00000b10 <__divmodhi4>:
 b10:	97 fb       	bst	r25, 7
 b12:	09 2e       	mov	r0, r25
 b14:	07 26       	eor	r0, r23
 b16:	0a d0       	rcall	.+20     	; 0xb2c <__divmodhi4_neg1>
 b18:	77 fd       	sbrc	r23, 7
 b1a:	04 d0       	rcall	.+8      	; 0xb24 <__divmodhi4_neg2>
 b1c:	e5 df       	rcall	.-54     	; 0xae8 <__udivmodhi4>
 b1e:	06 d0       	rcall	.+12     	; 0xb2c <__divmodhi4_neg1>
 b20:	00 20       	and	r0, r0
 b22:	1a f4       	brpl	.+6      	; 0xb2a <__divmodhi4_exit>

00000b24 <__divmodhi4_neg2>:
 b24:	70 95       	com	r23
 b26:	61 95       	neg	r22
 b28:	7f 4f       	sbci	r23, 0xFF	; 255

00000b2a <__divmodhi4_exit>:
 b2a:	08 95       	ret

00000b2c <__divmodhi4_neg1>:
 b2c:	f6 f7       	brtc	.-4      	; 0xb2a <__divmodhi4_exit>
 b2e:	90 95       	com	r25
 b30:	81 95       	neg	r24
 b32:	9f 4f       	sbci	r25, 0xFF	; 255
 b34:	08 95       	ret

00000b36 <_exit>:
 b36:	f8 94       	cli

00000b38 <__stop_program>:
 b38:	ff cf       	rjmp	.-2      	; 0xb38 <__stop_program>
